
bufbomb:     file format elf32-i386


Disassembly of section .init:

08049000 <_init>:
 8049000:	f3 0f 1e fb          	endbr32 
 8049004:	53                   	push   %ebx
 8049005:	83 ec 08             	sub    $0x8,%esp
 8049008:	e8 d3 02 00 00       	call   80492e0 <__x86.get_pc_thunk.bx>
 804900d:	81 c3 f3 3f 00 00    	add    $0x3ff3,%ebx
 8049013:	8b 83 fc ff ff ff    	mov    -0x4(%ebx),%eax
 8049019:	85 c0                	test   %eax,%eax
 804901b:	74 02                	je     804901f <_init+0x1f>
 804901d:	ff d0                	call   *%eax
 804901f:	83 c4 08             	add    $0x8,%esp
 8049022:	5b                   	pop    %ebx
 8049023:	c3                   	ret    

Disassembly of section .plt:

08049030 <strcmp@plt-0x10>:
 8049030:	ff 35 04 d0 04 08    	push   0x804d004
 8049036:	ff 25 08 d0 04 08    	jmp    *0x804d008
 804903c:	00 00                	add    %al,(%eax)
	...

08049040 <strcmp@plt>:
 8049040:	ff 25 0c d0 04 08    	jmp    *0x804d00c
 8049046:	68 00 00 00 00       	push   $0x0
 804904b:	e9 e0 ff ff ff       	jmp    8049030 <_init+0x30>

08049050 <__libc_start_main@plt>:
 8049050:	ff 25 10 d0 04 08    	jmp    *0x804d010
 8049056:	68 08 00 00 00       	push   $0x8
 804905b:	e9 d0 ff ff ff       	jmp    8049030 <_init+0x30>

08049060 <read@plt>:
 8049060:	ff 25 14 d0 04 08    	jmp    *0x804d014
 8049066:	68 10 00 00 00       	push   $0x10
 804906b:	e9 c0 ff ff ff       	jmp    8049030 <_init+0x30>

08049070 <srandom@plt>:
 8049070:	ff 25 18 d0 04 08    	jmp    *0x804d018
 8049076:	68 18 00 00 00       	push   $0x18
 804907b:	e9 b0 ff ff ff       	jmp    8049030 <_init+0x30>

08049080 <printf@plt>:
 8049080:	ff 25 1c d0 04 08    	jmp    *0x804d01c
 8049086:	68 20 00 00 00       	push   $0x20
 804908b:	e9 a0 ff ff ff       	jmp    8049030 <_init+0x30>

08049090 <memmove@plt>:
 8049090:	ff 25 20 d0 04 08    	jmp    *0x804d020
 8049096:	68 28 00 00 00       	push   $0x28
 804909b:	e9 90 ff ff ff       	jmp    8049030 <_init+0x30>

080490a0 <strdup@plt>:
 80490a0:	ff 25 24 d0 04 08    	jmp    *0x804d024
 80490a6:	68 30 00 00 00       	push   $0x30
 80490ab:	e9 80 ff ff ff       	jmp    8049030 <_init+0x30>

080490b0 <memcpy@plt>:
 80490b0:	ff 25 28 d0 04 08    	jmp    *0x804d028
 80490b6:	68 38 00 00 00       	push   $0x38
 80490bb:	e9 70 ff ff ff       	jmp    8049030 <_init+0x30>

080490c0 <signal@plt>:
 80490c0:	ff 25 2c d0 04 08    	jmp    *0x804d02c
 80490c6:	68 40 00 00 00       	push   $0x40
 80490cb:	e9 60 ff ff ff       	jmp    8049030 <_init+0x30>

080490d0 <alarm@plt>:
 80490d0:	ff 25 30 d0 04 08    	jmp    *0x804d030
 80490d6:	68 48 00 00 00       	push   $0x48
 80490db:	e9 50 ff ff ff       	jmp    8049030 <_init+0x30>

080490e0 <__stack_chk_fail@plt>:
 80490e0:	ff 25 34 d0 04 08    	jmp    *0x804d034
 80490e6:	68 50 00 00 00       	push   $0x50
 80490eb:	e9 40 ff ff ff       	jmp    8049030 <_init+0x30>

080490f0 <htons@plt>:
 80490f0:	ff 25 38 d0 04 08    	jmp    *0x804d038
 80490f6:	68 58 00 00 00       	push   $0x58
 80490fb:	e9 30 ff ff ff       	jmp    8049030 <_init+0x30>

08049100 <fwrite@plt>:
 8049100:	ff 25 3c d0 04 08    	jmp    *0x804d03c
 8049106:	68 60 00 00 00       	push   $0x60
 804910b:	e9 20 ff ff ff       	jmp    8049030 <_init+0x30>

08049110 <strcpy@plt>:
 8049110:	ff 25 40 d0 04 08    	jmp    *0x804d040
 8049116:	68 68 00 00 00       	push   $0x68
 804911b:	e9 10 ff ff ff       	jmp    8049030 <_init+0x30>

08049120 <getpid@plt>:
 8049120:	ff 25 44 d0 04 08    	jmp    *0x804d044
 8049126:	68 70 00 00 00       	push   $0x70
 804912b:	e9 00 ff ff ff       	jmp    8049030 <_init+0x30>

08049130 <gethostname@plt>:
 8049130:	ff 25 48 d0 04 08    	jmp    *0x804d048
 8049136:	68 78 00 00 00       	push   $0x78
 804913b:	e9 f0 fe ff ff       	jmp    8049030 <_init+0x30>

08049140 <puts@plt>:
 8049140:	ff 25 4c d0 04 08    	jmp    *0x804d04c
 8049146:	68 80 00 00 00       	push   $0x80
 804914b:	e9 e0 fe ff ff       	jmp    8049030 <_init+0x30>

08049150 <exit@plt>:
 8049150:	ff 25 50 d0 04 08    	jmp    *0x804d050
 8049156:	68 88 00 00 00       	push   $0x88
 804915b:	e9 d0 fe ff ff       	jmp    8049030 <_init+0x30>

08049160 <srand@plt>:
 8049160:	ff 25 54 d0 04 08    	jmp    *0x804d054
 8049166:	68 90 00 00 00       	push   $0x90
 804916b:	e9 c0 fe ff ff       	jmp    8049030 <_init+0x30>

08049170 <mmap@plt>:
 8049170:	ff 25 58 d0 04 08    	jmp    *0x804d058
 8049176:	68 98 00 00 00       	push   $0x98
 804917b:	e9 b0 fe ff ff       	jmp    8049030 <_init+0x30>

08049180 <strlen@plt>:
 8049180:	ff 25 5c d0 04 08    	jmp    *0x804d05c
 8049186:	68 a0 00 00 00       	push   $0xa0
 804918b:	e9 a0 fe ff ff       	jmp    8049030 <_init+0x30>

08049190 <write@plt>:
 8049190:	ff 25 60 d0 04 08    	jmp    *0x804d060
 8049196:	68 a8 00 00 00       	push   $0xa8
 804919b:	e9 90 fe ff ff       	jmp    8049030 <_init+0x30>

080491a0 <getopt@plt>:
 80491a0:	ff 25 64 d0 04 08    	jmp    *0x804d064
 80491a6:	68 b0 00 00 00       	push   $0xb0
 80491ab:	e9 80 fe ff ff       	jmp    8049030 <_init+0x30>

080491b0 <strcasecmp@plt>:
 80491b0:	ff 25 68 d0 04 08    	jmp    *0x804d068
 80491b6:	68 b8 00 00 00       	push   $0xb8
 80491bb:	e9 70 fe ff ff       	jmp    8049030 <_init+0x30>

080491c0 <__isoc99_sscanf@plt>:
 80491c0:	ff 25 6c d0 04 08    	jmp    *0x804d06c
 80491c6:	68 c0 00 00 00       	push   $0xc0
 80491cb:	e9 60 fe ff ff       	jmp    8049030 <_init+0x30>

080491d0 <memset@plt>:
 80491d0:	ff 25 70 d0 04 08    	jmp    *0x804d070
 80491d6:	68 c8 00 00 00       	push   $0xc8
 80491db:	e9 50 fe ff ff       	jmp    8049030 <_init+0x30>

080491e0 <__errno_location@plt>:
 80491e0:	ff 25 74 d0 04 08    	jmp    *0x804d074
 80491e6:	68 d0 00 00 00       	push   $0xd0
 80491eb:	e9 40 fe ff ff       	jmp    8049030 <_init+0x30>

080491f0 <rand@plt>:
 80491f0:	ff 25 78 d0 04 08    	jmp    *0x804d078
 80491f6:	68 d8 00 00 00       	push   $0xd8
 80491fb:	e9 30 fe ff ff       	jmp    8049030 <_init+0x30>

08049200 <munmap@plt>:
 8049200:	ff 25 7c d0 04 08    	jmp    *0x804d07c
 8049206:	68 e0 00 00 00       	push   $0xe0
 804920b:	e9 20 fe ff ff       	jmp    8049030 <_init+0x30>

08049210 <sprintf@plt>:
 8049210:	ff 25 80 d0 04 08    	jmp    *0x804d080
 8049216:	68 e8 00 00 00       	push   $0xe8
 804921b:	e9 10 fe ff ff       	jmp    8049030 <_init+0x30>

08049220 <socket@plt>:
 8049220:	ff 25 84 d0 04 08    	jmp    *0x804d084
 8049226:	68 f0 00 00 00       	push   $0xf0
 804922b:	e9 00 fe ff ff       	jmp    8049030 <_init+0x30>

08049230 <getc@plt>:
 8049230:	ff 25 88 d0 04 08    	jmp    *0x804d088
 8049236:	68 f8 00 00 00       	push   $0xf8
 804923b:	e9 f0 fd ff ff       	jmp    8049030 <_init+0x30>

08049240 <random@plt>:
 8049240:	ff 25 8c d0 04 08    	jmp    *0x804d08c
 8049246:	68 00 01 00 00       	push   $0x100
 804924b:	e9 e0 fd ff ff       	jmp    8049030 <_init+0x30>

08049250 <gethostbyname@plt>:
 8049250:	ff 25 90 d0 04 08    	jmp    *0x804d090
 8049256:	68 08 01 00 00       	push   $0x108
 804925b:	e9 d0 fd ff ff       	jmp    8049030 <_init+0x30>

08049260 <connect@plt>:
 8049260:	ff 25 94 d0 04 08    	jmp    *0x804d094
 8049266:	68 10 01 00 00       	push   $0x110
 804926b:	e9 c0 fd ff ff       	jmp    8049030 <_init+0x30>

08049270 <close@plt>:
 8049270:	ff 25 98 d0 04 08    	jmp    *0x804d098
 8049276:	68 18 01 00 00       	push   $0x118
 804927b:	e9 b0 fd ff ff       	jmp    8049030 <_init+0x30>

08049280 <calloc@plt>:
 8049280:	ff 25 9c d0 04 08    	jmp    *0x804d09c
 8049286:	68 20 01 00 00       	push   $0x120
 804928b:	e9 a0 fd ff ff       	jmp    8049030 <_init+0x30>

Disassembly of section .text:

08049290 <_start>:
 8049290:	f3 0f 1e fb          	endbr32 
 8049294:	31 ed                	xor    %ebp,%ebp
 8049296:	5e                   	pop    %esi
 8049297:	89 e1                	mov    %esp,%ecx
 8049299:	83 e4 f0             	and    $0xfffffff0,%esp
 804929c:	50                   	push   %eax
 804929d:	54                   	push   %esp
 804929e:	52                   	push   %edx
 804929f:	e8 19 00 00 00       	call   80492bd <_start+0x2d>
 80492a4:	81 c3 5c 3d 00 00    	add    $0x3d5c,%ebx
 80492aa:	6a 00                	push   $0x0
 80492ac:	6a 00                	push   $0x0
 80492ae:	51                   	push   %ecx
 80492af:	56                   	push   %esi
 80492b0:	c7 c0 b5 99 04 08    	mov    $0x80499b5,%eax
 80492b6:	50                   	push   %eax
 80492b7:	e8 94 fd ff ff       	call   8049050 <__libc_start_main@plt>
 80492bc:	f4                   	hlt    
 80492bd:	8b 1c 24             	mov    (%esp),%ebx
 80492c0:	c3                   	ret    
 80492c1:	66 90                	xchg   %ax,%ax
 80492c3:	66 90                	xchg   %ax,%ax
 80492c5:	66 90                	xchg   %ax,%ax
 80492c7:	66 90                	xchg   %ax,%ax
 80492c9:	66 90                	xchg   %ax,%ax
 80492cb:	66 90                	xchg   %ax,%ax
 80492cd:	66 90                	xchg   %ax,%ax
 80492cf:	90                   	nop

080492d0 <_dl_relocate_static_pie>:
 80492d0:	f3 0f 1e fb          	endbr32 
 80492d4:	c3                   	ret    
 80492d5:	66 90                	xchg   %ax,%ax
 80492d7:	66 90                	xchg   %ax,%ax
 80492d9:	66 90                	xchg   %ax,%ax
 80492db:	66 90                	xchg   %ax,%ax
 80492dd:	66 90                	xchg   %ax,%ax
 80492df:	90                   	nop

080492e0 <__x86.get_pc_thunk.bx>:
 80492e0:	8b 1c 24             	mov    (%esp),%ebx
 80492e3:	c3                   	ret    
 80492e4:	66 90                	xchg   %ax,%ax
 80492e6:	66 90                	xchg   %ax,%ax
 80492e8:	66 90                	xchg   %ax,%ax
 80492ea:	66 90                	xchg   %ax,%ax
 80492ec:	66 90                	xchg   %ax,%ax
 80492ee:	66 90                	xchg   %ax,%ax

080492f0 <deregister_tm_clones>:
 80492f0:	b8 08 d1 04 08       	mov    $0x804d108,%eax
 80492f5:	3d 08 d1 04 08       	cmp    $0x804d108,%eax
 80492fa:	74 24                	je     8049320 <deregister_tm_clones+0x30>
 80492fc:	b8 00 00 00 00       	mov    $0x0,%eax
 8049301:	85 c0                	test   %eax,%eax
 8049303:	74 1b                	je     8049320 <deregister_tm_clones+0x30>
 8049305:	55                   	push   %ebp
 8049306:	89 e5                	mov    %esp,%ebp
 8049308:	83 ec 14             	sub    $0x14,%esp
 804930b:	68 08 d1 04 08       	push   $0x804d108
 8049310:	ff d0                	call   *%eax
 8049312:	83 c4 10             	add    $0x10,%esp
 8049315:	c9                   	leave  
 8049316:	c3                   	ret    
 8049317:	8d b4 26 00 00 00 00 	lea    0x0(%esi,%eiz,1),%esi
 804931e:	66 90                	xchg   %ax,%ax
 8049320:	c3                   	ret    
 8049321:	8d b4 26 00 00 00 00 	lea    0x0(%esi,%eiz,1),%esi
 8049328:	8d b4 26 00 00 00 00 	lea    0x0(%esi,%eiz,1),%esi
 804932f:	90                   	nop

08049330 <register_tm_clones>:
 8049330:	b8 08 d1 04 08       	mov    $0x804d108,%eax
 8049335:	2d 08 d1 04 08       	sub    $0x804d108,%eax
 804933a:	89 c2                	mov    %eax,%edx
 804933c:	c1 e8 1f             	shr    $0x1f,%eax
 804933f:	c1 fa 02             	sar    $0x2,%edx
 8049342:	01 d0                	add    %edx,%eax
 8049344:	d1 f8                	sar    %eax
 8049346:	74 20                	je     8049368 <register_tm_clones+0x38>
 8049348:	ba 00 00 00 00       	mov    $0x0,%edx
 804934d:	85 d2                	test   %edx,%edx
 804934f:	74 17                	je     8049368 <register_tm_clones+0x38>
 8049351:	55                   	push   %ebp
 8049352:	89 e5                	mov    %esp,%ebp
 8049354:	83 ec 10             	sub    $0x10,%esp
 8049357:	50                   	push   %eax
 8049358:	68 08 d1 04 08       	push   $0x804d108
 804935d:	ff d2                	call   *%edx
 804935f:	83 c4 10             	add    $0x10,%esp
 8049362:	c9                   	leave  
 8049363:	c3                   	ret    
 8049364:	8d 74 26 00          	lea    0x0(%esi,%eiz,1),%esi
 8049368:	c3                   	ret    
 8049369:	8d b4 26 00 00 00 00 	lea    0x0(%esi,%eiz,1),%esi

08049370 <__do_global_dtors_aux>:
 8049370:	f3 0f 1e fb          	endbr32 
 8049374:	80 3d 64 d1 04 08 00 	cmpb   $0x0,0x804d164
 804937b:	75 1b                	jne    8049398 <__do_global_dtors_aux+0x28>
 804937d:	55                   	push   %ebp
 804937e:	89 e5                	mov    %esp,%ebp
 8049380:	83 ec 08             	sub    $0x8,%esp
 8049383:	e8 68 ff ff ff       	call   80492f0 <deregister_tm_clones>
 8049388:	c6 05 64 d1 04 08 01 	movb   $0x1,0x804d164
 804938f:	c9                   	leave  
 8049390:	c3                   	ret    
 8049391:	8d b4 26 00 00 00 00 	lea    0x0(%esi,%eiz,1),%esi
 8049398:	c3                   	ret    
 8049399:	8d b4 26 00 00 00 00 	lea    0x0(%esi,%eiz,1),%esi

080493a0 <frame_dummy>:
 80493a0:	f3 0f 1e fb          	endbr32 
 80493a4:	eb 8a                	jmp    8049330 <register_tm_clones>

080493a6 <RAND_FUNC>:
 80493a6:	55                   	push   %ebp
 80493a7:	89 e5                	mov    %esp,%ebp
 80493a9:	83 ec 38             	sub    $0x38,%esp
 80493ac:	65 a1 14 00 00 00    	mov    %gs:0x14,%eax
 80493b2:	89 45 f4             	mov    %eax,-0xc(%ebp)
 80493b5:	31 c0                	xor    %eax,%eax
 80493b7:	c7 45 d3 42 65 6c 6c 	movl   $0x6c6c6542,-0x2d(%ebp)
 80493be:	c7 45 d7 20 4c 61 62 	movl   $0x62614c20,-0x29(%ebp)
 80493c5:	c7 45 db 73 20 75 73 	movl   $0x73752073,-0x25(%ebp)
 80493cc:	c7 45 df 65 64 20 74 	movl   $0x74206465,-0x21(%ebp)
 80493d3:	c7 45 e3 68 65 20 61 	movl   $0x61206568,-0x1d(%ebp)
 80493da:	c7 45 e7 2e 6f 75 74 	movl   $0x74756f2e,-0x19(%ebp)
 80493e1:	c7 45 eb 20 66 6f 72 	movl   $0x726f6620,-0x15(%ebp)
 80493e8:	c7 45 ef 6d 61 74 2e 	movl   $0x2e74616d,-0x11(%ebp)
 80493ef:	c6 45 f3 00          	movb   $0x0,-0xd(%ebp)
 80493f3:	0f b6 45 f4          	movzbl -0xc(%ebp),%eax
 80493f7:	88 45 d3             	mov    %al,-0x2d(%ebp)
 80493fa:	90                   	nop
 80493fb:	8b 45 f4             	mov    -0xc(%ebp),%eax
 80493fe:	65 2b 05 14 00 00 00 	sub    %gs:0x14,%eax
 8049405:	74 05                	je     804940c <RAND_FUNC+0x66>
 8049407:	e8 d4 fc ff ff       	call   80490e0 <__stack_chk_fail@plt>
 804940c:	c9                   	leave  
 804940d:	c3                   	ret    

0804940e <smoke>:
 804940e:	55                   	push   %ebp
 804940f:	89 e5                	mov    %esp,%ebp
 8049411:	83 ec 08             	sub    $0x8,%esp
 8049414:	83 ec 0c             	sub    $0xc,%esp
 8049417:	68 08 b0 04 08       	push   $0x804b008
 804941c:	e8 1f fd ff ff       	call   8049140 <puts@plt>
 8049421:	83 c4 10             	add    $0x10,%esp
 8049424:	83 ec 0c             	sub    $0xc,%esp
 8049427:	6a 00                	push   $0x0
 8049429:	e8 ab 09 00 00       	call   8049dd9 <validate>
 804942e:	83 c4 10             	add    $0x10,%esp
 8049431:	83 ec 0c             	sub    $0xc,%esp
 8049434:	6a 00                	push   $0x0
 8049436:	e8 15 fd ff ff       	call   8049150 <exit@plt>

0804943b <fizz>:
 804943b:	55                   	push   %ebp
 804943c:	89 e5                	mov    %esp,%ebp
 804943e:	83 ec 08             	sub    $0x8,%esp
 8049441:	8b 55 08             	mov    0x8(%ebp),%edx
 8049444:	a1 90 d1 04 08       	mov    0x804d190,%eax
 8049449:	39 c2                	cmp    %eax,%edx
 804944b:	75 22                	jne    804946f <fizz+0x34>
 804944d:	83 ec 08             	sub    $0x8,%esp
 8049450:	ff 75 08             	push   0x8(%ebp)
 8049453:	68 23 b0 04 08       	push   $0x804b023
 8049458:	e8 23 fc ff ff       	call   8049080 <printf@plt>
 804945d:	83 c4 10             	add    $0x10,%esp
 8049460:	83 ec 0c             	sub    $0xc,%esp
 8049463:	6a 01                	push   $0x1
 8049465:	e8 6f 09 00 00       	call   8049dd9 <validate>
 804946a:	83 c4 10             	add    $0x10,%esp
 804946d:	eb 13                	jmp    8049482 <fizz+0x47>
 804946f:	83 ec 08             	sub    $0x8,%esp
 8049472:	ff 75 08             	push   0x8(%ebp)
 8049475:	68 44 b0 04 08       	push   $0x804b044
 804947a:	e8 01 fc ff ff       	call   8049080 <printf@plt>
 804947f:	83 c4 10             	add    $0x10,%esp
 8049482:	83 ec 0c             	sub    $0xc,%esp
 8049485:	6a 00                	push   $0x0
 8049487:	e8 c4 fc ff ff       	call   8049150 <exit@plt>

0804948c <bang>:
 804948c:	55                   	push   %ebp
 804948d:	89 e5                	mov    %esp,%ebp
 804948f:	83 ec 08             	sub    $0x8,%esp
 8049492:	a1 98 d1 04 08       	mov    0x804d198,%eax
 8049497:	89 c2                	mov    %eax,%edx
 8049499:	a1 90 d1 04 08       	mov    0x804d190,%eax
 804949e:	39 c2                	cmp    %eax,%edx
 80494a0:	75 25                	jne    80494c7 <bang+0x3b>
 80494a2:	a1 98 d1 04 08       	mov    0x804d198,%eax
 80494a7:	83 ec 08             	sub    $0x8,%esp
 80494aa:	50                   	push   %eax
 80494ab:	68 64 b0 04 08       	push   $0x804b064
 80494b0:	e8 cb fb ff ff       	call   8049080 <printf@plt>
 80494b5:	83 c4 10             	add    $0x10,%esp
 80494b8:	83 ec 0c             	sub    $0xc,%esp
 80494bb:	6a 02                	push   $0x2
 80494bd:	e8 17 09 00 00       	call   8049dd9 <validate>
 80494c2:	83 c4 10             	add    $0x10,%esp
 80494c5:	eb 16                	jmp    80494dd <bang+0x51>
 80494c7:	a1 98 d1 04 08       	mov    0x804d198,%eax
 80494cc:	83 ec 08             	sub    $0x8,%esp
 80494cf:	50                   	push   %eax
 80494d0:	68 89 b0 04 08       	push   $0x804b089
 80494d5:	e8 a6 fb ff ff       	call   8049080 <printf@plt>
 80494da:	83 c4 10             	add    $0x10,%esp
 80494dd:	83 ec 0c             	sub    $0xc,%esp
 80494e0:	6a 00                	push   $0x0
 80494e2:	e8 69 fc ff ff       	call   8049150 <exit@plt>

080494e7 <test>:
 80494e7:	55                   	push   %ebp
 80494e8:	89 e5                	mov    %esp,%ebp
 80494ea:	83 ec 18             	sub    $0x18,%esp
 80494ed:	e8 a5 04 00 00       	call   8049997 <uniqueval>
 80494f2:	89 45 f0             	mov    %eax,-0x10(%ebp)
 80494f5:	e8 11 07 00 00       	call   8049c0b <getbuf>
 80494fa:	89 45 f4             	mov    %eax,-0xc(%ebp)
 80494fd:	e8 95 04 00 00       	call   8049997 <uniqueval>
 8049502:	8b 55 f0             	mov    -0x10(%ebp),%edx
 8049505:	39 d0                	cmp    %edx,%eax
 8049507:	74 12                	je     804951b <test+0x34>
 8049509:	83 ec 0c             	sub    $0xc,%esp
 804950c:	68 a8 b0 04 08       	push   $0x804b0a8
 8049511:	e8 2a fc ff ff       	call   8049140 <puts@plt>
 8049516:	83 c4 10             	add    $0x10,%esp
 8049519:	eb 41                	jmp    804955c <test+0x75>
 804951b:	8b 55 f4             	mov    -0xc(%ebp),%edx
 804951e:	a1 90 d1 04 08       	mov    0x804d190,%eax
 8049523:	39 c2                	cmp    %eax,%edx
 8049525:	75 22                	jne    8049549 <test+0x62>
 8049527:	83 ec 08             	sub    $0x8,%esp
 804952a:	ff 75 f4             	push   -0xc(%ebp)
 804952d:	68 d1 b0 04 08       	push   $0x804b0d1
 8049532:	e8 49 fb ff ff       	call   8049080 <printf@plt>
 8049537:	83 c4 10             	add    $0x10,%esp
 804953a:	83 ec 0c             	sub    $0xc,%esp
 804953d:	6a 03                	push   $0x3
 804953f:	e8 95 08 00 00       	call   8049dd9 <validate>
 8049544:	83 c4 10             	add    $0x10,%esp
 8049547:	eb 13                	jmp    804955c <test+0x75>
 8049549:	83 ec 08             	sub    $0x8,%esp
 804954c:	ff 75 f4             	push   -0xc(%ebp)
 804954f:	68 ee b0 04 08       	push   $0x804b0ee
 8049554:	e8 27 fb ff ff       	call   8049080 <printf@plt>
 8049559:	83 c4 10             	add    $0x10,%esp
 804955c:	90                   	nop
 804955d:	c9                   	leave  
 804955e:	c3                   	ret    

0804955f <testn>:
 804955f:	55                   	push   %ebp
 8049560:	89 e5                	mov    %esp,%ebp
 8049562:	83 ec 18             	sub    $0x18,%esp
 8049565:	e8 2d 04 00 00       	call   8049997 <uniqueval>
 804956a:	89 45 f0             	mov    %eax,-0x10(%ebp)
 804956d:	e8 b5 06 00 00       	call   8049c27 <getbufn>
 8049572:	89 45 f4             	mov    %eax,-0xc(%ebp)
 8049575:	e8 1d 04 00 00       	call   8049997 <uniqueval>
 804957a:	8b 55 f0             	mov    -0x10(%ebp),%edx
 804957d:	39 d0                	cmp    %edx,%eax
 804957f:	74 12                	je     8049593 <testn+0x34>
 8049581:	83 ec 0c             	sub    $0xc,%esp
 8049584:	68 a8 b0 04 08       	push   $0x804b0a8
 8049589:	e8 b2 fb ff ff       	call   8049140 <puts@plt>
 804958e:	83 c4 10             	add    $0x10,%esp
 8049591:	eb 41                	jmp    80495d4 <testn+0x75>
 8049593:	8b 55 f4             	mov    -0xc(%ebp),%edx
 8049596:	a1 90 d1 04 08       	mov    0x804d190,%eax
 804959b:	39 c2                	cmp    %eax,%edx
 804959d:	75 22                	jne    80495c1 <testn+0x62>
 804959f:	83 ec 08             	sub    $0x8,%esp
 80495a2:	ff 75 f4             	push   -0xc(%ebp)
 80495a5:	68 0c b1 04 08       	push   $0x804b10c
 80495aa:	e8 d1 fa ff ff       	call   8049080 <printf@plt>
 80495af:	83 c4 10             	add    $0x10,%esp
 80495b2:	83 ec 0c             	sub    $0xc,%esp
 80495b5:	6a 04                	push   $0x4
 80495b7:	e8 1d 08 00 00       	call   8049dd9 <validate>
 80495bc:	83 c4 10             	add    $0x10,%esp
 80495bf:	eb 13                	jmp    80495d4 <testn+0x75>
 80495c1:	83 ec 08             	sub    $0x8,%esp
 80495c4:	ff 75 f4             	push   -0xc(%ebp)
 80495c7:	68 2c b1 04 08       	push   $0x804b12c
 80495cc:	e8 af fa ff ff       	call   8049080 <printf@plt>
 80495d1:	83 c4 10             	add    $0x10,%esp
 80495d4:	90                   	nop
 80495d5:	c9                   	leave  
 80495d6:	c3                   	ret    

080495d7 <save_char>:
 80495d7:	55                   	push   %ebp
 80495d8:	89 e5                	mov    %esp,%ebp
 80495da:	83 ec 04             	sub    $0x4,%esp
 80495dd:	8b 45 08             	mov    0x8(%ebp),%eax
 80495e0:	88 45 fc             	mov    %al,-0x4(%ebp)
 80495e3:	a1 9c d1 04 08       	mov    0x804d19c,%eax
 80495e8:	3d ff 03 00 00       	cmp    $0x3ff,%eax
 80495ed:	7f 70                	jg     804965f <save_char+0x88>
 80495ef:	0f b6 45 fc          	movzbl -0x4(%ebp),%eax
 80495f3:	c0 f8 04             	sar    $0x4,%al
 80495f6:	0f be c0             	movsbl %al,%eax
 80495f9:	83 e0 0f             	and    $0xf,%eax
 80495fc:	89 c1                	mov    %eax,%ecx
 80495fe:	8b 15 9c d1 04 08    	mov    0x804d19c,%edx
 8049604:	89 d0                	mov    %edx,%eax
 8049606:	01 c0                	add    %eax,%eax
 8049608:	01 c2                	add    %eax,%edx
 804960a:	0f b6 81 e4 d0 04 08 	movzbl 0x804d0e4(%ecx),%eax
 8049611:	88 82 a0 d1 04 08    	mov    %al,0x804d1a0(%edx)
 8049617:	0f be 45 fc          	movsbl -0x4(%ebp),%eax
 804961b:	83 e0 0f             	and    $0xf,%eax
 804961e:	89 c1                	mov    %eax,%ecx
 8049620:	8b 15 9c d1 04 08    	mov    0x804d19c,%edx
 8049626:	89 d0                	mov    %edx,%eax
 8049628:	01 c0                	add    %eax,%eax
 804962a:	01 d0                	add    %edx,%eax
 804962c:	8d 50 01             	lea    0x1(%eax),%edx
 804962f:	0f b6 81 e4 d0 04 08 	movzbl 0x804d0e4(%ecx),%eax
 8049636:	88 82 a0 d1 04 08    	mov    %al,0x804d1a0(%edx)
 804963c:	8b 15 9c d1 04 08    	mov    0x804d19c,%edx
 8049642:	89 d0                	mov    %edx,%eax
 8049644:	01 c0                	add    %eax,%eax
 8049646:	01 d0                	add    %edx,%eax
 8049648:	83 c0 02             	add    $0x2,%eax
 804964b:	c6 80 a0 d1 04 08 20 	movb   $0x20,0x804d1a0(%eax)
 8049652:	a1 9c d1 04 08       	mov    0x804d19c,%eax
 8049657:	83 c0 01             	add    $0x1,%eax
 804965a:	a3 9c d1 04 08       	mov    %eax,0x804d19c
 804965f:	90                   	nop
 8049660:	c9                   	leave  
 8049661:	c3                   	ret    

08049662 <save_term>:
 8049662:	55                   	push   %ebp
 8049663:	89 e5                	mov    %esp,%ebp
 8049665:	8b 15 9c d1 04 08    	mov    0x804d19c,%edx
 804966b:	89 d0                	mov    %edx,%eax
 804966d:	01 c0                	add    %eax,%eax
 804966f:	01 d0                	add    %edx,%eax
 8049671:	c6 80 a0 d1 04 08 00 	movb   $0x0,0x804d1a0(%eax)
 8049678:	90                   	nop
 8049679:	5d                   	pop    %ebp
 804967a:	c3                   	ret    

0804967b <Gets>:
 804967b:	55                   	push   %ebp
 804967c:	89 e5                	mov    %esp,%ebp
 804967e:	83 ec 18             	sub    $0x18,%esp
 8049681:	8b 45 08             	mov    0x8(%ebp),%eax
 8049684:	89 45 f0             	mov    %eax,-0x10(%ebp)
 8049687:	c7 05 9c d1 04 08 00 	movl   $0x0,0x804d19c
 804968e:	00 00 00 
 8049691:	eb 1d                	jmp    80496b0 <Gets+0x35>
 8049693:	8b 45 f0             	mov    -0x10(%ebp),%eax
 8049696:	8d 50 01             	lea    0x1(%eax),%edx
 8049699:	89 55 f0             	mov    %edx,-0x10(%ebp)
 804969c:	8b 55 f4             	mov    -0xc(%ebp),%edx
 804969f:	88 10                	mov    %dl,(%eax)
 80496a1:	8b 45 f4             	mov    -0xc(%ebp),%eax
 80496a4:	0f be c0             	movsbl %al,%eax
 80496a7:	50                   	push   %eax
 80496a8:	e8 2a ff ff ff       	call   80495d7 <save_char>
 80496ad:	83 c4 04             	add    $0x4,%esp
 80496b0:	a1 8c d1 04 08       	mov    0x804d18c,%eax
 80496b5:	83 ec 0c             	sub    $0xc,%esp
 80496b8:	50                   	push   %eax
 80496b9:	e8 72 fb ff ff       	call   8049230 <getc@plt>
 80496be:	83 c4 10             	add    $0x10,%esp
 80496c1:	89 45 f4             	mov    %eax,-0xc(%ebp)
 80496c4:	83 7d f4 ff          	cmpl   $0xffffffff,-0xc(%ebp)
 80496c8:	74 06                	je     80496d0 <Gets+0x55>
 80496ca:	83 7d f4 0a          	cmpl   $0xa,-0xc(%ebp)
 80496ce:	75 c3                	jne    8049693 <Gets+0x18>
 80496d0:	8b 45 f0             	mov    -0x10(%ebp),%eax
 80496d3:	8d 50 01             	lea    0x1(%eax),%edx
 80496d6:	89 55 f0             	mov    %edx,-0x10(%ebp)
 80496d9:	c6 00 00             	movb   $0x0,(%eax)
 80496dc:	e8 81 ff ff ff       	call   8049662 <save_term>
 80496e1:	8b 45 08             	mov    0x8(%ebp),%eax
 80496e4:	c9                   	leave  
 80496e5:	c3                   	ret    

080496e6 <usage>:
 80496e6:	55                   	push   %ebp
 80496e7:	89 e5                	mov    %esp,%ebp
 80496e9:	83 ec 08             	sub    $0x8,%esp
 80496ec:	83 ec 08             	sub    $0x8,%esp
 80496ef:	ff 75 08             	push   0x8(%ebp)
 80496f2:	68 48 b1 04 08       	push   $0x804b148
 80496f7:	e8 84 f9 ff ff       	call   8049080 <printf@plt>
 80496fc:	83 c4 10             	add    $0x10,%esp
 80496ff:	83 ec 0c             	sub    $0xc,%esp
 8049702:	68 66 b1 04 08       	push   $0x804b166
 8049707:	e8 34 fa ff ff       	call   8049140 <puts@plt>
 804970c:	83 c4 10             	add    $0x10,%esp
 804970f:	83 ec 0c             	sub    $0xc,%esp
 8049712:	68 7c b1 04 08       	push   $0x804b17c
 8049717:	e8 24 fa ff ff       	call   8049140 <puts@plt>
 804971c:	83 c4 10             	add    $0x10,%esp
 804971f:	83 ec 0c             	sub    $0xc,%esp
 8049722:	68 98 b1 04 08       	push   $0x804b198
 8049727:	e8 14 fa ff ff       	call   8049140 <puts@plt>
 804972c:	83 c4 10             	add    $0x10,%esp
 804972f:	83 ec 0c             	sub    $0xc,%esp
 8049732:	68 d4 b1 04 08       	push   $0x804b1d4
 8049737:	e8 04 fa ff ff       	call   8049140 <puts@plt>
 804973c:	83 c4 10             	add    $0x10,%esp
 804973f:	83 ec 0c             	sub    $0xc,%esp
 8049742:	6a 00                	push   $0x0
 8049744:	e8 07 fa ff ff       	call   8049150 <exit@plt>

08049749 <bushandler>:
 8049749:	55                   	push   %ebp
 804974a:	89 e5                	mov    %esp,%ebp
 804974c:	83 ec 08             	sub    $0x8,%esp
 804974f:	83 ec 0c             	sub    $0xc,%esp
 8049752:	68 fc b1 04 08       	push   $0x804b1fc
 8049757:	e8 e4 f9 ff ff       	call   8049140 <puts@plt>
 804975c:	83 c4 10             	add    $0x10,%esp
 804975f:	83 ec 0c             	sub    $0xc,%esp
 8049762:	68 1c b2 04 08       	push   $0x804b21c
 8049767:	e8 d4 f9 ff ff       	call   8049140 <puts@plt>
 804976c:	83 c4 10             	add    $0x10,%esp
 804976f:	83 ec 0c             	sub    $0xc,%esp
 8049772:	6a 00                	push   $0x0
 8049774:	e8 d7 f9 ff ff       	call   8049150 <exit@plt>

08049779 <seghandler>:
 8049779:	55                   	push   %ebp
 804977a:	89 e5                	mov    %esp,%ebp
 804977c:	83 ec 08             	sub    $0x8,%esp
 804977f:	83 ec 0c             	sub    $0xc,%esp
 8049782:	68 34 b2 04 08       	push   $0x804b234
 8049787:	e8 b4 f9 ff ff       	call   8049140 <puts@plt>
 804978c:	83 c4 10             	add    $0x10,%esp
 804978f:	83 ec 0c             	sub    $0xc,%esp
 8049792:	68 1c b2 04 08       	push   $0x804b21c
 8049797:	e8 a4 f9 ff ff       	call   8049140 <puts@plt>
 804979c:	83 c4 10             	add    $0x10,%esp
 804979f:	83 ec 0c             	sub    $0xc,%esp
 80497a2:	6a 00                	push   $0x0
 80497a4:	e8 a7 f9 ff ff       	call   8049150 <exit@plt>

080497a9 <illegalhandler>:
 80497a9:	55                   	push   %ebp
 80497aa:	89 e5                	mov    %esp,%ebp
 80497ac:	83 ec 08             	sub    $0x8,%esp
 80497af:	83 ec 0c             	sub    $0xc,%esp
 80497b2:	68 5c b2 04 08       	push   $0x804b25c
 80497b7:	e8 84 f9 ff ff       	call   8049140 <puts@plt>
 80497bc:	83 c4 10             	add    $0x10,%esp
 80497bf:	83 ec 0c             	sub    $0xc,%esp
 80497c2:	68 1c b2 04 08       	push   $0x804b21c
 80497c7:	e8 74 f9 ff ff       	call   8049140 <puts@plt>
 80497cc:	83 c4 10             	add    $0x10,%esp
 80497cf:	83 ec 0c             	sub    $0xc,%esp
 80497d2:	6a 00                	push   $0x0
 80497d4:	e8 77 f9 ff ff       	call   8049150 <exit@plt>

080497d9 <launch>:
 80497d9:	55                   	push   %ebp
 80497da:	89 e5                	mov    %esp,%ebp
 80497dc:	83 ec 58             	sub    $0x58,%esp
 80497df:	65 a1 14 00 00 00    	mov    %gs:0x14,%eax
 80497e5:	89 45 f4             	mov    %eax,-0xc(%ebp)
 80497e8:	31 c0                	xor    %eax,%eax
 80497ea:	c7 45 ac 00 00 00 00 	movl   $0x0,-0x54(%ebp)
 80497f1:	8d 45 b4             	lea    -0x4c(%ebp),%eax
 80497f4:	25 f0 3f 00 00       	and    $0x3ff0,%eax
 80497f9:	89 45 ac             	mov    %eax,-0x54(%ebp)
 80497fc:	8b 55 0c             	mov    0xc(%ebp),%edx
 80497ff:	8b 45 ac             	mov    -0x54(%ebp),%eax
 8049802:	01 d0                	add    %edx,%eax
 8049804:	8d 50 0c             	lea    0xc(%eax),%edx
 8049807:	b8 10 00 00 00       	mov    $0x10,%eax
 804980c:	83 e8 01             	sub    $0x1,%eax
 804980f:	01 d0                	add    %edx,%eax
 8049811:	b9 10 00 00 00       	mov    $0x10,%ecx
 8049816:	ba 00 00 00 00       	mov    $0x0,%edx
 804981b:	f7 f1                	div    %ecx
 804981d:	6b c0 10             	imul   $0x10,%eax,%eax
 8049820:	89 c1                	mov    %eax,%ecx
 8049822:	81 e1 00 f0 ff ff    	and    $0xfffff000,%ecx
 8049828:	89 e2                	mov    %esp,%edx
 804982a:	29 ca                	sub    %ecx,%edx
 804982c:	39 d4                	cmp    %edx,%esp
 804982e:	74 10                	je     8049840 <launch+0x67>
 8049830:	81 ec 00 10 00 00    	sub    $0x1000,%esp
 8049836:	83 8c 24 fc 0f 00 00 	orl    $0x0,0xffc(%esp)
 804983d:	00 
 804983e:	eb ec                	jmp    804982c <launch+0x53>
 8049840:	89 c2                	mov    %eax,%edx
 8049842:	81 e2 ff 0f 00 00    	and    $0xfff,%edx
 8049848:	29 d4                	sub    %edx,%esp
 804984a:	89 c2                	mov    %eax,%edx
 804984c:	81 e2 ff 0f 00 00    	and    $0xfff,%edx
 8049852:	85 d2                	test   %edx,%edx
 8049854:	74 0d                	je     8049863 <launch+0x8a>
 8049856:	25 ff 0f 00 00       	and    $0xfff,%eax
 804985b:	83 e8 04             	sub    $0x4,%eax
 804985e:	01 e0                	add    %esp,%eax
 8049860:	83 08 00             	orl    $0x0,(%eax)
 8049863:	89 e0                	mov    %esp,%eax
 8049865:	83 c0 0f             	add    $0xf,%eax
 8049868:	c1 e8 04             	shr    $0x4,%eax
 804986b:	c1 e0 04             	shl    $0x4,%eax
 804986e:	89 45 b0             	mov    %eax,-0x50(%ebp)
 8049871:	83 ec 04             	sub    $0x4,%esp
 8049874:	ff 75 ac             	push   -0x54(%ebp)
 8049877:	68 f4 00 00 00       	push   $0xf4
 804987c:	ff 75 b0             	push   -0x50(%ebp)
 804987f:	e8 4c f9 ff ff       	call   80491d0 <memset@plt>
 8049884:	83 c4 10             	add    $0x10,%esp
 8049887:	83 ec 0c             	sub    $0xc,%esp
 804988a:	68 87 b2 04 08       	push   $0x804b287
 804988f:	e8 ec f7 ff ff       	call   8049080 <printf@plt>
 8049894:	83 c4 10             	add    $0x10,%esp
 8049897:	83 7d 08 00          	cmpl   $0x0,0x8(%ebp)
 804989b:	74 07                	je     80498a4 <launch+0xcb>
 804989d:	e8 bd fc ff ff       	call   804955f <testn>
 80498a2:	eb 05                	jmp    80498a9 <launch+0xd0>
 80498a4:	e8 3e fc ff ff       	call   80494e7 <test>
 80498a9:	a1 94 d1 04 08       	mov    0x804d194,%eax
 80498ae:	85 c0                	test   %eax,%eax
 80498b0:	75 1a                	jne    80498cc <launch+0xf3>
 80498b2:	83 ec 0c             	sub    $0xc,%esp
 80498b5:	68 1c b2 04 08       	push   $0x804b21c
 80498ba:	e8 81 f8 ff ff       	call   8049140 <puts@plt>
 80498bf:	83 c4 10             	add    $0x10,%esp
 80498c2:	c7 05 94 d1 04 08 00 	movl   $0x0,0x804d194
 80498c9:	00 00 00 
 80498cc:	90                   	nop
 80498cd:	8b 45 f4             	mov    -0xc(%ebp),%eax
 80498d0:	65 2b 05 14 00 00 00 	sub    %gs:0x14,%eax
 80498d7:	74 05                	je     80498de <launch+0x105>
 80498d9:	e8 02 f8 ff ff       	call   80490e0 <__stack_chk_fail@plt>
 80498de:	c9                   	leave  
 80498df:	c3                   	ret    

080498e0 <launcher>:
 80498e0:	55                   	push   %ebp
 80498e1:	89 e5                	mov    %esp,%ebp
 80498e3:	83 ec 18             	sub    $0x18,%esp
 80498e6:	8b 45 08             	mov    0x8(%ebp),%eax
 80498e9:	a3 a4 dd 04 08       	mov    %eax,0x804dda4
 80498ee:	8b 45 0c             	mov    0xc(%ebp),%eax
 80498f1:	a3 a8 dd 04 08       	mov    %eax,0x804dda8
 80498f6:	83 ec 08             	sub    $0x8,%esp
 80498f9:	6a 00                	push   $0x0
 80498fb:	6a 00                	push   $0x0
 80498fd:	68 32 01 00 00       	push   $0x132
 8049902:	6a 07                	push   $0x7
 8049904:	68 00 00 10 00       	push   $0x100000
 8049909:	68 00 70 58 55       	push   $0x55587000
 804990e:	e8 5d f8 ff ff       	call   8049170 <mmap@plt>
 8049913:	83 c4 20             	add    $0x20,%esp
 8049916:	89 45 f4             	mov    %eax,-0xc(%ebp)
 8049919:	81 7d f4 00 70 58 55 	cmpl   $0x55587000,-0xc(%ebp)
 8049920:	74 21                	je     8049943 <launcher+0x63>
 8049922:	a1 20 d1 04 08       	mov    0x804d120,%eax
 8049927:	50                   	push   %eax
 8049928:	6a 47                	push   $0x47
 804992a:	6a 01                	push   $0x1
 804992c:	68 94 b2 04 08       	push   $0x804b294
 8049931:	e8 ca f7 ff ff       	call   8049100 <fwrite@plt>
 8049936:	83 c4 10             	add    $0x10,%esp
 8049939:	83 ec 0c             	sub    $0xc,%esp
 804993c:	6a 01                	push   $0x1
 804993e:	e8 0d f8 ff ff       	call   8049150 <exit@plt>
 8049943:	8b 45 f4             	mov    -0xc(%ebp),%eax
 8049946:	05 f8 ff 0f 00       	add    $0xffff8,%eax
 804994b:	a3 ac dd 04 08       	mov    %eax,0x804ddac
 8049950:	8b 15 ac dd 04 08    	mov    0x804ddac,%edx
 8049956:	89 e0                	mov    %esp,%eax
 8049958:	89 d4                	mov    %edx,%esp
 804995a:	89 c2                	mov    %eax,%edx
 804995c:	89 15 b0 dd 04 08    	mov    %edx,0x804ddb0
 8049962:	8b 15 a8 dd 04 08    	mov    0x804dda8,%edx
 8049968:	a1 a4 dd 04 08       	mov    0x804dda4,%eax
 804996d:	83 ec 08             	sub    $0x8,%esp
 8049970:	52                   	push   %edx
 8049971:	50                   	push   %eax
 8049972:	e8 62 fe ff ff       	call   80497d9 <launch>
 8049977:	83 c4 10             	add    $0x10,%esp
 804997a:	a1 b0 dd 04 08       	mov    0x804ddb0,%eax
 804997f:	89 c4                	mov    %eax,%esp
 8049981:	83 ec 08             	sub    $0x8,%esp
 8049984:	68 00 00 10 00       	push   $0x100000
 8049989:	ff 75 f4             	push   -0xc(%ebp)
 804998c:	e8 6f f8 ff ff       	call   8049200 <munmap@plt>
 8049991:	83 c4 10             	add    $0x10,%esp
 8049994:	90                   	nop
 8049995:	c9                   	leave  
 8049996:	c3                   	ret    

08049997 <uniqueval>:
 8049997:	55                   	push   %ebp
 8049998:	89 e5                	mov    %esp,%ebp
 804999a:	83 ec 08             	sub    $0x8,%esp
 804999d:	e8 7e f7 ff ff       	call   8049120 <getpid@plt>
 80499a2:	83 ec 0c             	sub    $0xc,%esp
 80499a5:	50                   	push   %eax
 80499a6:	e8 c5 f6 ff ff       	call   8049070 <srandom@plt>
 80499ab:	83 c4 10             	add    $0x10,%esp
 80499ae:	e8 8d f8 ff ff       	call   8049240 <random@plt>
 80499b3:	c9                   	leave  
 80499b4:	c3                   	ret    

080499b5 <main>:
 80499b5:	8d 4c 24 04          	lea    0x4(%esp),%ecx
 80499b9:	83 e4 f0             	and    $0xfffffff0,%esp
 80499bc:	ff 71 fc             	push   -0x4(%ecx)
 80499bf:	55                   	push   %ebp
 80499c0:	89 e5                	mov    %esp,%ebp
 80499c2:	53                   	push   %ebx
 80499c3:	51                   	push   %ecx
 80499c4:	83 ec 20             	sub    $0x20,%esp
 80499c7:	89 cb                	mov    %ecx,%ebx
 80499c9:	c7 45 f0 00 00 00 00 	movl   $0x0,-0x10(%ebp)
 80499d0:	c7 45 e4 00 00 00 00 	movl   $0x0,-0x1c(%ebp)
 80499d7:	c7 45 ec 01 00 00 00 	movl   $0x1,-0x14(%ebp)
 80499de:	83 ec 08             	sub    $0x8,%esp
 80499e1:	68 79 97 04 08       	push   $0x8049779
 80499e6:	6a 0b                	push   $0xb
 80499e8:	e8 d3 f6 ff ff       	call   80490c0 <signal@plt>
 80499ed:	83 c4 10             	add    $0x10,%esp
 80499f0:	83 ec 08             	sub    $0x8,%esp
 80499f3:	68 49 97 04 08       	push   $0x8049749
 80499f8:	6a 07                	push   $0x7
 80499fa:	e8 c1 f6 ff ff       	call   80490c0 <signal@plt>
 80499ff:	83 c4 10             	add    $0x10,%esp
 8049a02:	83 ec 08             	sub    $0x8,%esp
 8049a05:	68 a9 97 04 08       	push   $0x80497a9
 8049a0a:	6a 04                	push   $0x4
 8049a0c:	e8 af f6 ff ff       	call   80490c0 <signal@plt>
 8049a11:	83 c4 10             	add    $0x10,%esp
 8049a14:	a1 40 d1 04 08       	mov    0x804d140,%eax
 8049a19:	a3 8c d1 04 08       	mov    %eax,0x804d18c
 8049a1e:	e9 a3 00 00 00       	jmp    8049ac6 <main+0x111>
 8049a23:	0f be 45 e3          	movsbl -0x1d(%ebp),%eax
 8049a27:	83 e8 67             	sub    $0x67,%eax
 8049a2a:	83 f8 0e             	cmp    $0xe,%eax
 8049a2d:	0f 87 82 00 00 00    	ja     8049ab5 <main+0x100>
 8049a33:	8b 04 85 54 b3 04 08 	mov    0x804b354(,%eax,4),%eax
 8049a3a:	ff e0                	jmp    *%eax
 8049a3c:	8b 43 04             	mov    0x4(%ebx),%eax
 8049a3f:	8b 00                	mov    (%eax),%eax
 8049a41:	83 ec 0c             	sub    $0xc,%esp
 8049a44:	50                   	push   %eax
 8049a45:	e8 9c fc ff ff       	call   80496e6 <usage>
 8049a4a:	83 c4 10             	add    $0x10,%esp
 8049a4d:	eb 77                	jmp    8049ac6 <main+0x111>
 8049a4f:	c7 45 e4 01 00 00 00 	movl   $0x1,-0x1c(%ebp)
 8049a56:	c7 45 ec 05 00 00 00 	movl   $0x5,-0x14(%ebp)
 8049a5d:	eb 67                	jmp    8049ac6 <main+0x111>
 8049a5f:	a1 60 d1 04 08       	mov    0x804d160,%eax
 8049a64:	83 ec 0c             	sub    $0xc,%esp
 8049a67:	50                   	push   %eax
 8049a68:	e8 33 f6 ff ff       	call   80490a0 <strdup@plt>
 8049a6d:	83 c4 10             	add    $0x10,%esp
 8049a70:	a3 80 d1 04 08       	mov    %eax,0x804d180
 8049a75:	a1 80 d1 04 08       	mov    0x804d180,%eax
 8049a7a:	83 ec 0c             	sub    $0xc,%esp
 8049a7d:	50                   	push   %eax
 8049a7e:	e8 cd 12 00 00       	call   804ad50 <gencookie>
 8049a83:	83 c4 10             	add    $0x10,%esp
 8049a86:	a3 90 d1 04 08       	mov    %eax,0x804d190
 8049a8b:	eb 39                	jmp    8049ac6 <main+0x111>
 8049a8d:	83 ec 0c             	sub    $0xc,%esp
 8049a90:	68 dc b2 04 08       	push   $0x804b2dc
 8049a95:	e8 a6 f6 ff ff       	call   8049140 <puts@plt>
 8049a9a:	83 c4 10             	add    $0x10,%esp
 8049a9d:	c7 05 84 d1 04 08 00 	movl   $0x0,0x804d184
 8049aa4:	00 00 00 
 8049aa7:	eb 1d                	jmp    8049ac6 <main+0x111>
 8049aa9:	c7 05 88 d1 04 08 01 	movl   $0x1,0x804d188
 8049ab0:	00 00 00 
 8049ab3:	eb 11                	jmp    8049ac6 <main+0x111>
 8049ab5:	8b 43 04             	mov    0x4(%ebx),%eax
 8049ab8:	8b 00                	mov    (%eax),%eax
 8049aba:	83 ec 0c             	sub    $0xc,%esp
 8049abd:	50                   	push   %eax
 8049abe:	e8 23 fc ff ff       	call   80496e6 <usage>
 8049ac3:	83 c4 10             	add    $0x10,%esp
 8049ac6:	83 ec 04             	sub    $0x4,%esp
 8049ac9:	68 04 b3 04 08       	push   $0x804b304
 8049ace:	ff 73 04             	push   0x4(%ebx)
 8049ad1:	ff 33                	push   (%ebx)
 8049ad3:	e8 c8 f6 ff ff       	call   80491a0 <getopt@plt>
 8049ad8:	83 c4 10             	add    $0x10,%esp
 8049adb:	88 45 e3             	mov    %al,-0x1d(%ebp)
 8049ade:	80 7d e3 ff          	cmpb   $0xff,-0x1d(%ebp)
 8049ae2:	0f 85 3b ff ff ff    	jne    8049a23 <main+0x6e>
 8049ae8:	a1 80 d1 04 08       	mov    0x804d180,%eax
 8049aed:	85 c0                	test   %eax,%eax
 8049aef:	75 27                	jne    8049b18 <main+0x163>
 8049af1:	8b 43 04             	mov    0x4(%ebx),%eax
 8049af4:	8b 00                	mov    (%eax),%eax
 8049af6:	83 ec 08             	sub    $0x8,%esp
 8049af9:	50                   	push   %eax
 8049afa:	68 0c b3 04 08       	push   $0x804b30c
 8049aff:	e8 7c f5 ff ff       	call   8049080 <printf@plt>
 8049b04:	83 c4 10             	add    $0x10,%esp
 8049b07:	8b 43 04             	mov    0x4(%ebx),%eax
 8049b0a:	8b 00                	mov    (%eax),%eax
 8049b0c:	83 ec 0c             	sub    $0xc,%esp
 8049b0f:	50                   	push   %eax
 8049b10:	e8 d1 fb ff ff       	call   80496e6 <usage>
 8049b15:	83 c4 10             	add    $0x10,%esp
 8049b18:	e8 2c 01 00 00       	call   8049c49 <initialize_bomb>
 8049b1d:	a1 80 d1 04 08       	mov    0x804d180,%eax
 8049b22:	83 ec 08             	sub    $0x8,%esp
 8049b25:	50                   	push   %eax
 8049b26:	68 38 b3 04 08       	push   $0x804b338
 8049b2b:	e8 50 f5 ff ff       	call   8049080 <printf@plt>
 8049b30:	83 c4 10             	add    $0x10,%esp
 8049b33:	a1 90 d1 04 08       	mov    0x804d190,%eax
 8049b38:	83 ec 08             	sub    $0x8,%esp
 8049b3b:	50                   	push   %eax
 8049b3c:	68 44 b3 04 08       	push   $0x804b344
 8049b41:	e8 3a f5 ff ff       	call   8049080 <printf@plt>
 8049b46:	83 c4 10             	add    $0x10,%esp
 8049b49:	a1 90 d1 04 08       	mov    0x804d190,%eax
 8049b4e:	83 ec 0c             	sub    $0xc,%esp
 8049b51:	50                   	push   %eax
 8049b52:	e8 19 f5 ff ff       	call   8049070 <srandom@plt>
 8049b57:	83 c4 10             	add    $0x10,%esp
 8049b5a:	e8 e1 f6 ff ff       	call   8049240 <random@plt>
 8049b5f:	25 f0 0f 00 00       	and    $0xff0,%eax
 8049b64:	05 00 01 00 00       	add    $0x100,%eax
 8049b69:	89 45 f0             	mov    %eax,-0x10(%ebp)
 8049b6c:	8b 45 ec             	mov    -0x14(%ebp),%eax
 8049b6f:	83 ec 08             	sub    $0x8,%esp
 8049b72:	6a 04                	push   $0x4
 8049b74:	50                   	push   %eax
 8049b75:	e8 06 f7 ff ff       	call   8049280 <calloc@plt>
 8049b7a:	83 c4 10             	add    $0x10,%esp
 8049b7d:	89 45 f4             	mov    %eax,-0xc(%ebp)
 8049b80:	8b 45 f4             	mov    -0xc(%ebp),%eax
 8049b83:	c7 00 00 00 00 00    	movl   $0x0,(%eax)
 8049b89:	c7 45 e8 01 00 00 00 	movl   $0x1,-0x18(%ebp)
 8049b90:	eb 28                	jmp    8049bba <main+0x205>
 8049b92:	e8 a9 f6 ff ff       	call   8049240 <random@plt>
 8049b97:	25 f0 00 00 00       	and    $0xf0,%eax
 8049b9c:	89 c1                	mov    %eax,%ecx
 8049b9e:	8b 45 e8             	mov    -0x18(%ebp),%eax
 8049ba1:	8d 14 85 00 00 00 00 	lea    0x0(,%eax,4),%edx
 8049ba8:	8b 45 f4             	mov    -0xc(%ebp),%eax
 8049bab:	01 d0                	add    %edx,%eax
 8049bad:	ba 80 00 00 00       	mov    $0x80,%edx
 8049bb2:	29 ca                	sub    %ecx,%edx
 8049bb4:	89 10                	mov    %edx,(%eax)
 8049bb6:	83 45 e8 01          	addl   $0x1,-0x18(%ebp)
 8049bba:	8b 45 e8             	mov    -0x18(%ebp),%eax
 8049bbd:	3b 45 ec             	cmp    -0x14(%ebp),%eax
 8049bc0:	7c d0                	jl     8049b92 <main+0x1dd>
 8049bc2:	c7 45 e8 00 00 00 00 	movl   $0x0,-0x18(%ebp)
 8049bc9:	eb 29                	jmp    8049bf4 <main+0x23f>
 8049bcb:	8b 45 e8             	mov    -0x18(%ebp),%eax
 8049bce:	8d 14 85 00 00 00 00 	lea    0x0(,%eax,4),%edx
 8049bd5:	8b 45 f4             	mov    -0xc(%ebp),%eax
 8049bd8:	01 d0                	add    %edx,%eax
 8049bda:	8b 10                	mov    (%eax),%edx
 8049bdc:	8b 45 f0             	mov    -0x10(%ebp),%eax
 8049bdf:	01 d0                	add    %edx,%eax
 8049be1:	83 ec 08             	sub    $0x8,%esp
 8049be4:	50                   	push   %eax
 8049be5:	ff 75 e4             	push   -0x1c(%ebp)
 8049be8:	e8 f3 fc ff ff       	call   80498e0 <launcher>
 8049bed:	83 c4 10             	add    $0x10,%esp
 8049bf0:	83 45 e8 01          	addl   $0x1,-0x18(%ebp)
 8049bf4:	8b 45 e8             	mov    -0x18(%ebp),%eax
 8049bf7:	3b 45 ec             	cmp    -0x14(%ebp),%eax
 8049bfa:	7c cf                	jl     8049bcb <main+0x216>
 8049bfc:	b8 00 00 00 00       	mov    $0x0,%eax
 8049c01:	8d 65 f8             	lea    -0x8(%ebp),%esp
 8049c04:	59                   	pop    %ecx
 8049c05:	5b                   	pop    %ebx
 8049c06:	5d                   	pop    %ebp
 8049c07:	8d 61 fc             	lea    -0x4(%ecx),%esp
 8049c0a:	c3                   	ret    

08049c0b <getbuf>:
 8049c0b:	55                   	push   %ebp
 8049c0c:	89 e5                	mov    %esp,%ebp
 8049c0e:	83 ec 38             	sub    $0x38,%esp
 8049c11:	83 ec 0c             	sub    $0xc,%esp
 8049c14:	8d 45 ce             	lea    -0x32(%ebp),%eax
 8049c17:	50                   	push   %eax
 8049c18:	e8 5e fa ff ff       	call   804967b <Gets>
 8049c1d:	83 c4 10             	add    $0x10,%esp
 8049c20:	b8 01 00 00 00       	mov    $0x1,%eax
 8049c25:	c9                   	leave  
 8049c26:	c3                   	ret    

08049c27 <getbufn>:
 8049c27:	55                   	push   %ebp
 8049c28:	89 e5                	mov    %esp,%ebp
 8049c2a:	81 ec f8 02 00 00    	sub    $0x2f8,%esp
 8049c30:	83 ec 0c             	sub    $0xc,%esp
 8049c33:	8d 85 0d fd ff ff    	lea    -0x2f3(%ebp),%eax
 8049c39:	50                   	push   %eax
 8049c3a:	e8 3c fa ff ff       	call   804967b <Gets>
 8049c3f:	83 c4 10             	add    $0x10,%esp
 8049c42:	b8 01 00 00 00       	mov    $0x1,%eax
 8049c47:	c9                   	leave  
 8049c48:	c3                   	ret    

08049c49 <initialize_bomb>:
 8049c49:	55                   	push   %ebp
 8049c4a:	89 e5                	mov    %esp,%ebp
 8049c4c:	81 ec 00 10 00 00    	sub    $0x1000,%esp
 8049c52:	83 0c 24 00          	orl    $0x0,(%esp)
 8049c56:	81 ec 00 10 00 00    	sub    $0x1000,%esp
 8049c5c:	83 0c 24 00          	orl    $0x0,(%esp)
 8049c60:	81 ec 18 04 00 00    	sub    $0x418,%esp
 8049c66:	65 a1 14 00 00 00    	mov    %gs:0x14,%eax
 8049c6c:	89 45 f4             	mov    %eax,-0xc(%ebp)
 8049c6f:	31 c0                	xor    %eax,%eax
 8049c71:	c7 85 f0 db ff ff 00 	movl   $0x0,-0x2410(%ebp)
 8049c78:	00 00 00 
 8049c7b:	a1 88 d1 04 08       	mov    0x804d188,%eax
 8049c80:	85 c0                	test   %eax,%eax
 8049c82:	74 0d                	je     8049c91 <initialize_bomb+0x48>
 8049c84:	83 ec 0c             	sub    $0xc,%esp
 8049c87:	6a ff                	push   $0xffffffff
 8049c89:	e8 a2 0d 00 00       	call   804aa30 <init_timeout>
 8049c8e:	83 c4 10             	add    $0x10,%esp
 8049c91:	a1 84 d1 04 08       	mov    0x804d184,%eax
 8049c96:	85 c0                	test   %eax,%eax
 8049c98:	0f 84 27 01 00 00    	je     8049dc5 <initialize_bomb+0x17c>
 8049c9e:	83 ec 08             	sub    $0x8,%esp
 8049ca1:	68 00 04 00 00       	push   $0x400
 8049ca6:	8d 85 f4 db ff ff    	lea    -0x240c(%ebp),%eax
 8049cac:	50                   	push   %eax
 8049cad:	e8 7e f4 ff ff       	call   8049130 <gethostname@plt>
 8049cb2:	83 c4 10             	add    $0x10,%esp
 8049cb5:	85 c0                	test   %eax,%eax
 8049cb7:	74 1a                	je     8049cd3 <initialize_bomb+0x8a>
 8049cb9:	83 ec 0c             	sub    $0xc,%esp
 8049cbc:	68 90 b3 04 08       	push   $0x804b390
 8049cc1:	e8 7a f4 ff ff       	call   8049140 <puts@plt>
 8049cc6:	83 c4 10             	add    $0x10,%esp
 8049cc9:	83 ec 0c             	sub    $0xc,%esp
 8049ccc:	6a 08                	push   $0x8
 8049cce:	e8 7d f4 ff ff       	call   8049150 <exit@plt>
 8049cd3:	c7 85 ec db ff ff 00 	movl   $0x0,-0x2414(%ebp)
 8049cda:	00 00 00 
 8049cdd:	eb 37                	jmp    8049d16 <initialize_bomb+0xcd>
 8049cdf:	8b 85 ec db ff ff    	mov    -0x2414(%ebp),%eax
 8049ce5:	8b 04 85 c0 dd 04 08 	mov    0x804ddc0(,%eax,4),%eax
 8049cec:	83 ec 08             	sub    $0x8,%esp
 8049cef:	8d 95 f4 db ff ff    	lea    -0x240c(%ebp),%edx
 8049cf5:	52                   	push   %edx
 8049cf6:	50                   	push   %eax
 8049cf7:	e8 b4 f4 ff ff       	call   80491b0 <strcasecmp@plt>
 8049cfc:	83 c4 10             	add    $0x10,%esp
 8049cff:	85 c0                	test   %eax,%eax
 8049d01:	75 0c                	jne    8049d0f <initialize_bomb+0xc6>
 8049d03:	c7 85 f0 db ff ff 01 	movl   $0x1,-0x2410(%ebp)
 8049d0a:	00 00 00 
 8049d0d:	eb 18                	jmp    8049d27 <initialize_bomb+0xde>
 8049d0f:	83 85 ec db ff ff 01 	addl   $0x1,-0x2414(%ebp)
 8049d16:	8b 85 ec db ff ff    	mov    -0x2414(%ebp),%eax
 8049d1c:	8b 04 85 c0 dd 04 08 	mov    0x804ddc0(,%eax,4),%eax
 8049d23:	85 c0                	test   %eax,%eax
 8049d25:	75 b8                	jne    8049cdf <initialize_bomb+0x96>
 8049d27:	83 bd f0 db ff ff 00 	cmpl   $0x0,-0x2410(%ebp)
 8049d2e:	75 5e                	jne    8049d8e <initialize_bomb+0x145>
 8049d30:	83 ec 08             	sub    $0x8,%esp
 8049d33:	8d 85 f4 db ff ff    	lea    -0x240c(%ebp),%eax
 8049d39:	50                   	push   %eax
 8049d3a:	68 c8 b3 04 08       	push   $0x804b3c8
 8049d3f:	e8 3c f3 ff ff       	call   8049080 <printf@plt>
 8049d44:	83 c4 10             	add    $0x10,%esp
 8049d47:	c7 85 ec db ff ff 00 	movl   $0x0,-0x2414(%ebp)
 8049d4e:	00 00 00 
 8049d51:	eb 20                	jmp    8049d73 <initialize_bomb+0x12a>
 8049d53:	8b 85 ec db ff ff    	mov    -0x2414(%ebp),%eax
 8049d59:	8b 04 85 c0 dd 04 08 	mov    0x804ddc0(,%eax,4),%eax
 8049d60:	83 ec 0c             	sub    $0xc,%esp
 8049d63:	50                   	push   %eax
 8049d64:	e8 d7 f3 ff ff       	call   8049140 <puts@plt>
 8049d69:	83 c4 10             	add    $0x10,%esp
 8049d6c:	83 85 ec db ff ff 01 	addl   $0x1,-0x2414(%ebp)
 8049d73:	8b 85 ec db ff ff    	mov    -0x2414(%ebp),%eax
 8049d79:	8b 04 85 c0 dd 04 08 	mov    0x804ddc0(,%eax,4),%eax
 8049d80:	85 c0                	test   %eax,%eax
 8049d82:	75 cf                	jne    8049d53 <initialize_bomb+0x10a>
 8049d84:	83 ec 0c             	sub    $0xc,%esp
 8049d87:	6a 08                	push   $0x8
 8049d89:	e8 c2 f3 ff ff       	call   8049150 <exit@plt>
 8049d8e:	83 ec 0c             	sub    $0xc,%esp
 8049d91:	8d 85 f4 df ff ff    	lea    -0x200c(%ebp),%eax
 8049d97:	50                   	push   %eax
 8049d98:	e8 d2 0c 00 00       	call   804aa6f <init_driver>
 8049d9d:	83 c4 10             	add    $0x10,%esp
 8049da0:	85 c0                	test   %eax,%eax
 8049da2:	79 21                	jns    8049dc5 <initialize_bomb+0x17c>
 8049da4:	83 ec 08             	sub    $0x8,%esp
 8049da7:	8d 85 f4 df ff ff    	lea    -0x200c(%ebp),%eax
 8049dad:	50                   	push   %eax
 8049dae:	68 03 b4 04 08       	push   $0x804b403
 8049db3:	e8 c8 f2 ff ff       	call   8049080 <printf@plt>
 8049db8:	83 c4 10             	add    $0x10,%esp
 8049dbb:	83 ec 0c             	sub    $0xc,%esp
 8049dbe:	6a 08                	push   $0x8
 8049dc0:	e8 8b f3 ff ff       	call   8049150 <exit@plt>
 8049dc5:	90                   	nop
 8049dc6:	8b 45 f4             	mov    -0xc(%ebp),%eax
 8049dc9:	65 2b 05 14 00 00 00 	sub    %gs:0x14,%eax
 8049dd0:	74 05                	je     8049dd7 <initialize_bomb+0x18e>
 8049dd2:	e8 09 f3 ff ff       	call   80490e0 <__stack_chk_fail@plt>
 8049dd7:	c9                   	leave  
 8049dd8:	c3                   	ret    

08049dd9 <validate>:
 8049dd9:	55                   	push   %ebp
 8049dda:	89 e5                	mov    %esp,%ebp
 8049ddc:	8d 84 24 00 c0 ff ff 	lea    -0x4000(%esp),%eax
 8049de3:	81 ec 00 10 00 00    	sub    $0x1000,%esp
 8049de9:	83 0c 24 00          	orl    $0x0,(%esp)
 8049ded:	39 c4                	cmp    %eax,%esp
 8049def:	75 f2                	jne    8049de3 <validate+0xa>
 8049df1:	83 ec 18             	sub    $0x18,%esp
 8049df4:	65 a1 14 00 00 00    	mov    %gs:0x14,%eax
 8049dfa:	89 45 f4             	mov    %eax,-0xc(%ebp)
 8049dfd:	31 c0                	xor    %eax,%eax
 8049dff:	a1 80 d1 04 08       	mov    0x804d180,%eax
 8049e04:	85 c0                	test   %eax,%eax
 8049e06:	75 15                	jne    8049e1d <validate+0x44>
 8049e08:	83 ec 0c             	sub    $0xc,%esp
 8049e0b:	68 18 b4 04 08       	push   $0x804b418
 8049e10:	e8 2b f3 ff ff       	call   8049140 <puts@plt>
 8049e15:	83 c4 10             	add    $0x10,%esp
 8049e18:	e9 3c 01 00 00       	jmp    8049f59 <validate+0x180>
 8049e1d:	83 7d 08 00          	cmpl   $0x0,0x8(%ebp)
 8049e21:	78 06                	js     8049e29 <validate+0x50>
 8049e23:	83 7d 08 04          	cmpl   $0x4,0x8(%ebp)
 8049e27:	7e 15                	jle    8049e3e <validate+0x65>
 8049e29:	83 ec 0c             	sub    $0xc,%esp
 8049e2c:	68 44 b4 04 08       	push   $0x804b444
 8049e31:	e8 0a f3 ff ff       	call   8049140 <puts@plt>
 8049e36:	83 c4 10             	add    $0x10,%esp
 8049e39:	e9 1b 01 00 00       	jmp    8049f59 <validate+0x180>
 8049e3e:	c7 05 94 d1 04 08 01 	movl   $0x1,0x804d194
 8049e45:	00 00 00 
 8049e48:	8b 45 08             	mov    0x8(%ebp),%eax
 8049e4b:	8b 04 85 f4 d0 04 08 	mov    0x804d0f4(,%eax,4),%eax
 8049e52:	8d 50 ff             	lea    -0x1(%eax),%edx
 8049e55:	8b 45 08             	mov    0x8(%ebp),%eax
 8049e58:	89 14 85 f4 d0 04 08 	mov    %edx,0x804d0f4(,%eax,4)
 8049e5f:	8b 45 08             	mov    0x8(%ebp),%eax
 8049e62:	8b 04 85 f4 d0 04 08 	mov    0x804d0f4(,%eax,4),%eax
 8049e69:	85 c0                	test   %eax,%eax
 8049e6b:	7e 15                	jle    8049e82 <validate+0xa9>
 8049e6d:	83 ec 0c             	sub    $0xc,%esp
 8049e70:	68 6a b4 04 08       	push   $0x804b46a
 8049e75:	e8 c6 f2 ff ff       	call   8049140 <puts@plt>
 8049e7a:	83 c4 10             	add    $0x10,%esp
 8049e7d:	e9 d7 00 00 00       	jmp    8049f59 <validate+0x180>
 8049e82:	83 ec 0c             	sub    $0xc,%esp
 8049e85:	68 75 b4 04 08       	push   $0x804b475
 8049e8a:	e8 b1 f2 ff ff       	call   8049140 <puts@plt>
 8049e8f:	83 c4 10             	add    $0x10,%esp
 8049e92:	a1 84 d1 04 08       	mov    0x804d184,%eax
 8049e97:	85 c0                	test   %eax,%eax
 8049e99:	0f 84 aa 00 00 00    	je     8049f49 <validate+0x170>
 8049e9f:	83 ec 0c             	sub    $0xc,%esp
 8049ea2:	68 a0 d1 04 08       	push   $0x804d1a0
 8049ea7:	e8 d4 f2 ff ff       	call   8049180 <strlen@plt>
 8049eac:	83 c4 10             	add    $0x10,%esp
 8049eaf:	83 c0 20             	add    $0x20,%eax
 8049eb2:	3d 00 20 00 00       	cmp    $0x2000,%eax
 8049eb7:	76 15                	jbe    8049ece <validate+0xf5>
 8049eb9:	83 ec 0c             	sub    $0xc,%esp
 8049ebc:	68 7c b4 04 08       	push   $0x804b47c
 8049ec1:	e8 7a f2 ff ff       	call   8049140 <puts@plt>
 8049ec6:	83 c4 10             	add    $0x10,%esp
 8049ec9:	e9 8b 00 00 00       	jmp    8049f59 <validate+0x180>
 8049ece:	a1 90 d1 04 08       	mov    0x804d190,%eax
 8049ed3:	83 ec 0c             	sub    $0xc,%esp
 8049ed6:	68 a0 d1 04 08       	push   $0x804d1a0
 8049edb:	50                   	push   %eax
 8049edc:	ff 75 08             	push   0x8(%ebp)
 8049edf:	68 b3 b4 04 08       	push   $0x804b4b3
 8049ee4:	8d 85 f4 bf ff ff    	lea    -0x400c(%ebp),%eax
 8049eea:	50                   	push   %eax
 8049eeb:	e8 20 f3 ff ff       	call   8049210 <sprintf@plt>
 8049ef0:	83 c4 20             	add    $0x20,%esp
 8049ef3:	a1 80 d1 04 08       	mov    0x804d180,%eax
 8049ef8:	8d 95 f4 df ff ff    	lea    -0x200c(%ebp),%edx
 8049efe:	52                   	push   %edx
 8049eff:	6a 00                	push   $0x0
 8049f01:	8d 95 f4 bf ff ff    	lea    -0x400c(%ebp),%edx
 8049f07:	52                   	push   %edx
 8049f08:	50                   	push   %eax
 8049f09:	e8 36 0d 00 00       	call   804ac44 <driver_post>
 8049f0e:	83 c4 10             	add    $0x10,%esp
 8049f11:	89 85 f0 bf ff ff    	mov    %eax,-0x4010(%ebp)
 8049f17:	83 bd f0 bf ff ff 00 	cmpl   $0x0,-0x4010(%ebp)
 8049f1e:	75 12                	jne    8049f32 <validate+0x159>
 8049f20:	83 ec 0c             	sub    $0xc,%esp
 8049f23:	68 bc b4 04 08       	push   $0x804b4bc
 8049f28:	e8 13 f2 ff ff       	call   8049140 <puts@plt>
 8049f2d:	83 c4 10             	add    $0x10,%esp
 8049f30:	eb 17                	jmp    8049f49 <validate+0x170>
 8049f32:	83 ec 08             	sub    $0x8,%esp
 8049f35:	8d 85 f4 df ff ff    	lea    -0x200c(%ebp),%eax
 8049f3b:	50                   	push   %eax
 8049f3c:	68 ec b4 04 08       	push   $0x804b4ec
 8049f41:	e8 3a f1 ff ff       	call   8049080 <printf@plt>
 8049f46:	83 c4 10             	add    $0x10,%esp
 8049f49:	83 ec 0c             	sub    $0xc,%esp
 8049f4c:	68 2a b5 04 08       	push   $0x804b52a
 8049f51:	e8 ea f1 ff ff       	call   8049140 <puts@plt>
 8049f56:	83 c4 10             	add    $0x10,%esp
 8049f59:	8b 45 f4             	mov    -0xc(%ebp),%eax
 8049f5c:	65 2b 05 14 00 00 00 	sub    %gs:0x14,%eax
 8049f63:	74 05                	je     8049f6a <validate+0x191>
 8049f65:	e8 76 f1 ff ff       	call   80490e0 <__stack_chk_fail@plt>
 8049f6a:	c9                   	leave  
 8049f6b:	c3                   	ret    

08049f6c <sigalrm_handler>:
 8049f6c:	55                   	push   %ebp
 8049f6d:	89 e5                	mov    %esp,%ebp
 8049f6f:	83 ec 08             	sub    $0x8,%esp
 8049f72:	83 ec 08             	sub    $0x8,%esp
 8049f75:	6a 02                	push   $0x2
 8049f77:	68 34 b5 04 08       	push   $0x804b534
 8049f7c:	e8 ff f0 ff ff       	call   8049080 <printf@plt>
 8049f81:	83 c4 10             	add    $0x10,%esp
 8049f84:	83 ec 0c             	sub    $0xc,%esp
 8049f87:	6a 01                	push   $0x1
 8049f89:	e8 c2 f1 ff ff       	call   8049150 <exit@plt>

08049f8e <rio_readinitb>:
 8049f8e:	55                   	push   %ebp
 8049f8f:	89 e5                	mov    %esp,%ebp
 8049f91:	8b 45 08             	mov    0x8(%ebp),%eax
 8049f94:	8b 55 0c             	mov    0xc(%ebp),%edx
 8049f97:	89 10                	mov    %edx,(%eax)
 8049f99:	8b 45 08             	mov    0x8(%ebp),%eax
 8049f9c:	c7 40 04 00 00 00 00 	movl   $0x0,0x4(%eax)
 8049fa3:	8b 45 08             	mov    0x8(%ebp),%eax
 8049fa6:	8d 50 0c             	lea    0xc(%eax),%edx
 8049fa9:	8b 45 08             	mov    0x8(%ebp),%eax
 8049fac:	89 50 08             	mov    %edx,0x8(%eax)
 8049faf:	90                   	nop
 8049fb0:	5d                   	pop    %ebp
 8049fb1:	c3                   	ret    

08049fb2 <rio_read>:
 8049fb2:	55                   	push   %ebp
 8049fb3:	89 e5                	mov    %esp,%ebp
 8049fb5:	83 ec 18             	sub    $0x18,%esp
 8049fb8:	eb 5d                	jmp    804a017 <rio_read+0x65>
 8049fba:	8b 45 08             	mov    0x8(%ebp),%eax
 8049fbd:	8d 50 0c             	lea    0xc(%eax),%edx
 8049fc0:	8b 45 08             	mov    0x8(%ebp),%eax
 8049fc3:	8b 00                	mov    (%eax),%eax
 8049fc5:	83 ec 04             	sub    $0x4,%esp
 8049fc8:	68 00 20 00 00       	push   $0x2000
 8049fcd:	52                   	push   %edx
 8049fce:	50                   	push   %eax
 8049fcf:	e8 8c f0 ff ff       	call   8049060 <read@plt>
 8049fd4:	83 c4 10             	add    $0x10,%esp
 8049fd7:	8b 55 08             	mov    0x8(%ebp),%edx
 8049fda:	89 42 04             	mov    %eax,0x4(%edx)
 8049fdd:	8b 45 08             	mov    0x8(%ebp),%eax
 8049fe0:	8b 40 04             	mov    0x4(%eax),%eax
 8049fe3:	85 c0                	test   %eax,%eax
 8049fe5:	79 13                	jns    8049ffa <rio_read+0x48>
 8049fe7:	e8 f4 f1 ff ff       	call   80491e0 <__errno_location@plt>
 8049fec:	8b 00                	mov    (%eax),%eax
 8049fee:	83 f8 04             	cmp    $0x4,%eax
 8049ff1:	74 24                	je     804a017 <rio_read+0x65>
 8049ff3:	b8 ff ff ff ff       	mov    $0xffffffff,%eax
 8049ff8:	eb 7f                	jmp    804a079 <rio_read+0xc7>
 8049ffa:	8b 45 08             	mov    0x8(%ebp),%eax
 8049ffd:	8b 40 04             	mov    0x4(%eax),%eax
 804a000:	85 c0                	test   %eax,%eax
 804a002:	75 07                	jne    804a00b <rio_read+0x59>
 804a004:	b8 00 00 00 00       	mov    $0x0,%eax
 804a009:	eb 6e                	jmp    804a079 <rio_read+0xc7>
 804a00b:	8b 45 08             	mov    0x8(%ebp),%eax
 804a00e:	8d 50 0c             	lea    0xc(%eax),%edx
 804a011:	8b 45 08             	mov    0x8(%ebp),%eax
 804a014:	89 50 08             	mov    %edx,0x8(%eax)
 804a017:	8b 45 08             	mov    0x8(%ebp),%eax
 804a01a:	8b 40 04             	mov    0x4(%eax),%eax
 804a01d:	85 c0                	test   %eax,%eax
 804a01f:	7e 99                	jle    8049fba <rio_read+0x8>
 804a021:	8b 45 10             	mov    0x10(%ebp),%eax
 804a024:	89 45 f4             	mov    %eax,-0xc(%ebp)
 804a027:	8b 45 08             	mov    0x8(%ebp),%eax
 804a02a:	8b 40 04             	mov    0x4(%eax),%eax
 804a02d:	39 45 10             	cmp    %eax,0x10(%ebp)
 804a030:	76 09                	jbe    804a03b <rio_read+0x89>
 804a032:	8b 45 08             	mov    0x8(%ebp),%eax
 804a035:	8b 40 04             	mov    0x4(%eax),%eax
 804a038:	89 45 f4             	mov    %eax,-0xc(%ebp)
 804a03b:	8b 55 f4             	mov    -0xc(%ebp),%edx
 804a03e:	8b 45 08             	mov    0x8(%ebp),%eax
 804a041:	8b 40 08             	mov    0x8(%eax),%eax
 804a044:	83 ec 04             	sub    $0x4,%esp
 804a047:	52                   	push   %edx
 804a048:	50                   	push   %eax
 804a049:	ff 75 0c             	push   0xc(%ebp)
 804a04c:	e8 5f f0 ff ff       	call   80490b0 <memcpy@plt>
 804a051:	83 c4 10             	add    $0x10,%esp
 804a054:	8b 45 08             	mov    0x8(%ebp),%eax
 804a057:	8b 50 08             	mov    0x8(%eax),%edx
 804a05a:	8b 45 f4             	mov    -0xc(%ebp),%eax
 804a05d:	01 c2                	add    %eax,%edx
 804a05f:	8b 45 08             	mov    0x8(%ebp),%eax
 804a062:	89 50 08             	mov    %edx,0x8(%eax)
 804a065:	8b 45 08             	mov    0x8(%ebp),%eax
 804a068:	8b 40 04             	mov    0x4(%eax),%eax
 804a06b:	2b 45 f4             	sub    -0xc(%ebp),%eax
 804a06e:	89 c2                	mov    %eax,%edx
 804a070:	8b 45 08             	mov    0x8(%ebp),%eax
 804a073:	89 50 04             	mov    %edx,0x4(%eax)
 804a076:	8b 45 f4             	mov    -0xc(%ebp),%eax
 804a079:	c9                   	leave  
 804a07a:	c3                   	ret    

0804a07b <rio_readlineb>:
 804a07b:	55                   	push   %ebp
 804a07c:	89 e5                	mov    %esp,%ebp
 804a07e:	83 ec 38             	sub    $0x38,%esp
 804a081:	8b 45 08             	mov    0x8(%ebp),%eax
 804a084:	89 45 d4             	mov    %eax,-0x2c(%ebp)
 804a087:	8b 45 0c             	mov    0xc(%ebp),%eax
 804a08a:	89 45 d0             	mov    %eax,-0x30(%ebp)
 804a08d:	65 a1 14 00 00 00    	mov    %gs:0x14,%eax
 804a093:	89 45 f4             	mov    %eax,-0xc(%ebp)
 804a096:	31 c0                	xor    %eax,%eax
 804a098:	8b 45 d0             	mov    -0x30(%ebp),%eax
 804a09b:	89 45 ec             	mov    %eax,-0x14(%ebp)
 804a09e:	c7 45 e8 01 00 00 00 	movl   $0x1,-0x18(%ebp)
 804a0a5:	eb 54                	jmp    804a0fb <rio_readlineb+0x80>
 804a0a7:	83 ec 04             	sub    $0x4,%esp
 804a0aa:	6a 01                	push   $0x1
 804a0ac:	8d 45 e7             	lea    -0x19(%ebp),%eax
 804a0af:	50                   	push   %eax
 804a0b0:	ff 75 d4             	push   -0x2c(%ebp)
 804a0b3:	e8 fa fe ff ff       	call   8049fb2 <rio_read>
 804a0b8:	83 c4 10             	add    $0x10,%esp
 804a0bb:	89 45 f0             	mov    %eax,-0x10(%ebp)
 804a0be:	83 7d f0 01          	cmpl   $0x1,-0x10(%ebp)
 804a0c2:	75 19                	jne    804a0dd <rio_readlineb+0x62>
 804a0c4:	8b 45 ec             	mov    -0x14(%ebp),%eax
 804a0c7:	8d 50 01             	lea    0x1(%eax),%edx
 804a0ca:	89 55 ec             	mov    %edx,-0x14(%ebp)
 804a0cd:	0f b6 55 e7          	movzbl -0x19(%ebp),%edx
 804a0d1:	88 10                	mov    %dl,(%eax)
 804a0d3:	0f b6 45 e7          	movzbl -0x19(%ebp),%eax
 804a0d7:	3c 0a                	cmp    $0xa,%al
 804a0d9:	75 1c                	jne    804a0f7 <rio_readlineb+0x7c>
 804a0db:	eb 29                	jmp    804a106 <rio_readlineb+0x8b>
 804a0dd:	83 7d f0 00          	cmpl   $0x0,-0x10(%ebp)
 804a0e1:	75 0d                	jne    804a0f0 <rio_readlineb+0x75>
 804a0e3:	83 7d e8 01          	cmpl   $0x1,-0x18(%ebp)
 804a0e7:	75 1c                	jne    804a105 <rio_readlineb+0x8a>
 804a0e9:	b8 00 00 00 00       	mov    $0x0,%eax
 804a0ee:	eb 1f                	jmp    804a10f <rio_readlineb+0x94>
 804a0f0:	b8 ff ff ff ff       	mov    $0xffffffff,%eax
 804a0f5:	eb 18                	jmp    804a10f <rio_readlineb+0x94>
 804a0f7:	83 45 e8 01          	addl   $0x1,-0x18(%ebp)
 804a0fb:	8b 45 e8             	mov    -0x18(%ebp),%eax
 804a0fe:	39 45 10             	cmp    %eax,0x10(%ebp)
 804a101:	77 a4                	ja     804a0a7 <rio_readlineb+0x2c>
 804a103:	eb 01                	jmp    804a106 <rio_readlineb+0x8b>
 804a105:	90                   	nop
 804a106:	8b 45 ec             	mov    -0x14(%ebp),%eax
 804a109:	c6 00 00             	movb   $0x0,(%eax)
 804a10c:	8b 45 e8             	mov    -0x18(%ebp),%eax
 804a10f:	8b 55 f4             	mov    -0xc(%ebp),%edx
 804a112:	65 2b 15 14 00 00 00 	sub    %gs:0x14,%edx
 804a119:	74 05                	je     804a120 <rio_readlineb+0xa5>
 804a11b:	e8 c0 ef ff ff       	call   80490e0 <__stack_chk_fail@plt>
 804a120:	c9                   	leave  
 804a121:	c3                   	ret    

0804a122 <rio_writen>:
 804a122:	55                   	push   %ebp
 804a123:	89 e5                	mov    %esp,%ebp
 804a125:	83 ec 18             	sub    $0x18,%esp
 804a128:	8b 45 10             	mov    0x10(%ebp),%eax
 804a12b:	89 45 ec             	mov    %eax,-0x14(%ebp)
 804a12e:	8b 45 0c             	mov    0xc(%ebp),%eax
 804a131:	89 45 f4             	mov    %eax,-0xc(%ebp)
 804a134:	eb 45                	jmp    804a17b <rio_writen+0x59>
 804a136:	83 ec 04             	sub    $0x4,%esp
 804a139:	ff 75 ec             	push   -0x14(%ebp)
 804a13c:	ff 75 f4             	push   -0xc(%ebp)
 804a13f:	ff 75 08             	push   0x8(%ebp)
 804a142:	e8 49 f0 ff ff       	call   8049190 <write@plt>
 804a147:	83 c4 10             	add    $0x10,%esp
 804a14a:	89 45 f0             	mov    %eax,-0x10(%ebp)
 804a14d:	83 7d f0 00          	cmpl   $0x0,-0x10(%ebp)
 804a151:	7f 1c                	jg     804a16f <rio_writen+0x4d>
 804a153:	e8 88 f0 ff ff       	call   80491e0 <__errno_location@plt>
 804a158:	8b 00                	mov    (%eax),%eax
 804a15a:	83 f8 04             	cmp    $0x4,%eax
 804a15d:	75 09                	jne    804a168 <rio_writen+0x46>
 804a15f:	c7 45 f0 00 00 00 00 	movl   $0x0,-0x10(%ebp)
 804a166:	eb 07                	jmp    804a16f <rio_writen+0x4d>
 804a168:	b8 ff ff ff ff       	mov    $0xffffffff,%eax
 804a16d:	eb 15                	jmp    804a184 <rio_writen+0x62>
 804a16f:	8b 45 f0             	mov    -0x10(%ebp),%eax
 804a172:	29 45 ec             	sub    %eax,-0x14(%ebp)
 804a175:	8b 45 f0             	mov    -0x10(%ebp),%eax
 804a178:	01 45 f4             	add    %eax,-0xc(%ebp)
 804a17b:	83 7d ec 00          	cmpl   $0x0,-0x14(%ebp)
 804a17f:	75 b5                	jne    804a136 <rio_writen+0x14>
 804a181:	8b 45 10             	mov    0x10(%ebp),%eax
 804a184:	c9                   	leave  
 804a185:	c3                   	ret    

0804a186 <urlencode>:
 804a186:	55                   	push   %ebp
 804a187:	89 e5                	mov    %esp,%ebp
 804a189:	83 ec 28             	sub    $0x28,%esp
 804a18c:	8b 45 08             	mov    0x8(%ebp),%eax
 804a18f:	89 45 e4             	mov    %eax,-0x1c(%ebp)
 804a192:	8b 45 0c             	mov    0xc(%ebp),%eax
 804a195:	89 45 e0             	mov    %eax,-0x20(%ebp)
 804a198:	65 a1 14 00 00 00    	mov    %gs:0x14,%eax
 804a19e:	89 45 f4             	mov    %eax,-0xc(%ebp)
 804a1a1:	31 c0                	xor    %eax,%eax
 804a1a3:	83 ec 0c             	sub    $0xc,%esp
 804a1a6:	ff 75 e4             	push   -0x1c(%ebp)
 804a1a9:	e8 d2 ef ff ff       	call   8049180 <strlen@plt>
 804a1ae:	83 c4 10             	add    $0x10,%esp
 804a1b1:	89 45 e8             	mov    %eax,-0x18(%ebp)
 804a1b4:	e9 0e 01 00 00       	jmp    804a2c7 <urlencode+0x141>
 804a1b9:	8b 45 e4             	mov    -0x1c(%ebp),%eax
 804a1bc:	0f b6 00             	movzbl (%eax),%eax
 804a1bf:	3c 2a                	cmp    $0x2a,%al
 804a1c1:	74 5a                	je     804a21d <urlencode+0x97>
 804a1c3:	8b 45 e4             	mov    -0x1c(%ebp),%eax
 804a1c6:	0f b6 00             	movzbl (%eax),%eax
 804a1c9:	3c 2d                	cmp    $0x2d,%al
 804a1cb:	74 50                	je     804a21d <urlencode+0x97>
 804a1cd:	8b 45 e4             	mov    -0x1c(%ebp),%eax
 804a1d0:	0f b6 00             	movzbl (%eax),%eax
 804a1d3:	3c 2e                	cmp    $0x2e,%al
 804a1d5:	74 46                	je     804a21d <urlencode+0x97>
 804a1d7:	8b 45 e4             	mov    -0x1c(%ebp),%eax
 804a1da:	0f b6 00             	movzbl (%eax),%eax
 804a1dd:	3c 5f                	cmp    $0x5f,%al
 804a1df:	74 3c                	je     804a21d <urlencode+0x97>
 804a1e1:	8b 45 e4             	mov    -0x1c(%ebp),%eax
 804a1e4:	0f b6 00             	movzbl (%eax),%eax
 804a1e7:	3c 2f                	cmp    $0x2f,%al
 804a1e9:	76 0a                	jbe    804a1f5 <urlencode+0x6f>
 804a1eb:	8b 45 e4             	mov    -0x1c(%ebp),%eax
 804a1ee:	0f b6 00             	movzbl (%eax),%eax
 804a1f1:	3c 39                	cmp    $0x39,%al
 804a1f3:	76 28                	jbe    804a21d <urlencode+0x97>
 804a1f5:	8b 45 e4             	mov    -0x1c(%ebp),%eax
 804a1f8:	0f b6 00             	movzbl (%eax),%eax
 804a1fb:	3c 40                	cmp    $0x40,%al
 804a1fd:	76 0a                	jbe    804a209 <urlencode+0x83>
 804a1ff:	8b 45 e4             	mov    -0x1c(%ebp),%eax
 804a202:	0f b6 00             	movzbl (%eax),%eax
 804a205:	3c 5a                	cmp    $0x5a,%al
 804a207:	76 14                	jbe    804a21d <urlencode+0x97>
 804a209:	8b 45 e4             	mov    -0x1c(%ebp),%eax
 804a20c:	0f b6 00             	movzbl (%eax),%eax
 804a20f:	3c 60                	cmp    $0x60,%al
 804a211:	76 20                	jbe    804a233 <urlencode+0xad>
 804a213:	8b 45 e4             	mov    -0x1c(%ebp),%eax
 804a216:	0f b6 00             	movzbl (%eax),%eax
 804a219:	3c 7a                	cmp    $0x7a,%al
 804a21b:	77 16                	ja     804a233 <urlencode+0xad>
 804a21d:	8b 45 e0             	mov    -0x20(%ebp),%eax
 804a220:	8d 50 01             	lea    0x1(%eax),%edx
 804a223:	89 55 e0             	mov    %edx,-0x20(%ebp)
 804a226:	8b 55 e4             	mov    -0x1c(%ebp),%edx
 804a229:	0f b6 12             	movzbl (%edx),%edx
 804a22c:	88 10                	mov    %dl,(%eax)
 804a22e:	e9 90 00 00 00       	jmp    804a2c3 <urlencode+0x13d>
 804a233:	8b 45 e4             	mov    -0x1c(%ebp),%eax
 804a236:	0f b6 00             	movzbl (%eax),%eax
 804a239:	3c 20                	cmp    $0x20,%al
 804a23b:	75 0e                	jne    804a24b <urlencode+0xc5>
 804a23d:	8b 45 e0             	mov    -0x20(%ebp),%eax
 804a240:	8d 50 01             	lea    0x1(%eax),%edx
 804a243:	89 55 e0             	mov    %edx,-0x20(%ebp)
 804a246:	c6 00 2b             	movb   $0x2b,(%eax)
 804a249:	eb 78                	jmp    804a2c3 <urlencode+0x13d>
 804a24b:	8b 45 e4             	mov    -0x1c(%ebp),%eax
 804a24e:	0f b6 00             	movzbl (%eax),%eax
 804a251:	3c 1f                	cmp    $0x1f,%al
 804a253:	76 0a                	jbe    804a25f <urlencode+0xd9>
 804a255:	8b 45 e4             	mov    -0x1c(%ebp),%eax
 804a258:	0f b6 00             	movzbl (%eax),%eax
 804a25b:	84 c0                	test   %al,%al
 804a25d:	79 0a                	jns    804a269 <urlencode+0xe3>
 804a25f:	8b 45 e4             	mov    -0x1c(%ebp),%eax
 804a262:	0f b6 00             	movzbl (%eax),%eax
 804a265:	3c 09                	cmp    $0x9,%al
 804a267:	75 53                	jne    804a2bc <urlencode+0x136>
 804a269:	8b 45 e4             	mov    -0x1c(%ebp),%eax
 804a26c:	0f b6 00             	movzbl (%eax),%eax
 804a26f:	0f b6 c0             	movzbl %al,%eax
 804a272:	83 ec 04             	sub    $0x4,%esp
 804a275:	50                   	push   %eax
 804a276:	68 58 b5 04 08       	push   $0x804b558
 804a27b:	8d 45 ec             	lea    -0x14(%ebp),%eax
 804a27e:	50                   	push   %eax
 804a27f:	e8 8c ef ff ff       	call   8049210 <sprintf@plt>
 804a284:	83 c4 10             	add    $0x10,%esp
 804a287:	0f b6 4d ec          	movzbl -0x14(%ebp),%ecx
 804a28b:	8b 45 e0             	mov    -0x20(%ebp),%eax
 804a28e:	8d 50 01             	lea    0x1(%eax),%edx
 804a291:	89 55 e0             	mov    %edx,-0x20(%ebp)
 804a294:	89 ca                	mov    %ecx,%edx
 804a296:	88 10                	mov    %dl,(%eax)
 804a298:	0f b6 4d ed          	movzbl -0x13(%ebp),%ecx
 804a29c:	8b 45 e0             	mov    -0x20(%ebp),%eax
 804a29f:	8d 50 01             	lea    0x1(%eax),%edx
 804a2a2:	89 55 e0             	mov    %edx,-0x20(%ebp)
 804a2a5:	89 ca                	mov    %ecx,%edx
 804a2a7:	88 10                	mov    %dl,(%eax)
 804a2a9:	0f b6 4d ee          	movzbl -0x12(%ebp),%ecx
 804a2ad:	8b 45 e0             	mov    -0x20(%ebp),%eax
 804a2b0:	8d 50 01             	lea    0x1(%eax),%edx
 804a2b3:	89 55 e0             	mov    %edx,-0x20(%ebp)
 804a2b6:	89 ca                	mov    %ecx,%edx
 804a2b8:	88 10                	mov    %dl,(%eax)
 804a2ba:	eb 07                	jmp    804a2c3 <urlencode+0x13d>
 804a2bc:	b8 ff ff ff ff       	mov    $0xffffffff,%eax
 804a2c1:	eb 1a                	jmp    804a2dd <urlencode+0x157>
 804a2c3:	83 45 e4 01          	addl   $0x1,-0x1c(%ebp)
 804a2c7:	8b 45 e8             	mov    -0x18(%ebp),%eax
 804a2ca:	8d 50 ff             	lea    -0x1(%eax),%edx
 804a2cd:	89 55 e8             	mov    %edx,-0x18(%ebp)
 804a2d0:	85 c0                	test   %eax,%eax
 804a2d2:	0f 85 e1 fe ff ff    	jne    804a1b9 <urlencode+0x33>
 804a2d8:	b8 00 00 00 00       	mov    $0x0,%eax
 804a2dd:	8b 55 f4             	mov    -0xc(%ebp),%edx
 804a2e0:	65 2b 15 14 00 00 00 	sub    %gs:0x14,%edx
 804a2e7:	74 05                	je     804a2ee <urlencode+0x168>
 804a2e9:	e8 f2 ed ff ff       	call   80490e0 <__stack_chk_fail@plt>
 804a2ee:	c9                   	leave  
 804a2ef:	c3                   	ret    

0804a2f0 <submitr>:
 804a2f0:	55                   	push   %ebp
 804a2f1:	89 e5                	mov    %esp,%ebp
 804a2f3:	57                   	push   %edi
 804a2f4:	56                   	push   %esi
 804a2f5:	53                   	push   %ebx
 804a2f6:	8d 84 24 00 60 ff ff 	lea    -0xa000(%esp),%eax
 804a2fd:	81 ec 00 10 00 00    	sub    $0x1000,%esp
 804a303:	83 0c 24 00          	orl    $0x0,(%esp)
 804a307:	39 c4                	cmp    %eax,%esp
 804a309:	75 f2                	jne    804a2fd <submitr+0xd>
 804a30b:	83 ec 6c             	sub    $0x6c,%esp
 804a30e:	8b 45 08             	mov    0x8(%ebp),%eax
 804a311:	89 85 a4 5f ff ff    	mov    %eax,-0xa05c(%ebp)
 804a317:	8b 45 10             	mov    0x10(%ebp),%eax
 804a31a:	89 85 a0 5f ff ff    	mov    %eax,-0xa060(%ebp)
 804a320:	8b 45 14             	mov    0x14(%ebp),%eax
 804a323:	89 85 9c 5f ff ff    	mov    %eax,-0xa064(%ebp)
 804a329:	8b 45 18             	mov    0x18(%ebp),%eax
 804a32c:	89 85 98 5f ff ff    	mov    %eax,-0xa068(%ebp)
 804a332:	8b 45 1c             	mov    0x1c(%ebp),%eax
 804a335:	89 85 94 5f ff ff    	mov    %eax,-0xa06c(%ebp)
 804a33b:	8b 45 20             	mov    0x20(%ebp),%eax
 804a33e:	89 85 90 5f ff ff    	mov    %eax,-0xa070(%ebp)
 804a344:	65 a1 14 00 00 00    	mov    %gs:0x14,%eax
 804a34a:	89 45 e4             	mov    %eax,-0x1c(%ebp)
 804a34d:	31 c0                	xor    %eax,%eax
 804a34f:	c7 85 b4 5f ff ff 00 	movl   $0x0,-0xa04c(%ebp)
 804a356:	00 00 00 
 804a359:	83 ec 04             	sub    $0x4,%esp
 804a35c:	6a 00                	push   $0x0
 804a35e:	6a 01                	push   $0x1
 804a360:	6a 02                	push   $0x2
 804a362:	e8 b9 ee ff ff       	call   8049220 <socket@plt>
 804a367:	83 c4 10             	add    $0x10,%esp
 804a36a:	89 85 b8 5f ff ff    	mov    %eax,-0xa048(%ebp)
 804a370:	83 bd b8 5f ff ff 00 	cmpl   $0x0,-0xa048(%ebp)
 804a377:	79 54                	jns    804a3cd <submitr+0xdd>
 804a379:	8b 85 90 5f ff ff    	mov    -0xa070(%ebp),%eax
 804a37f:	c7 00 45 72 72 6f    	movl   $0x6f727245,(%eax)
 804a385:	c7 40 04 72 3a 20 43 	movl   $0x43203a72,0x4(%eax)
 804a38c:	c7 40 08 6c 69 65 6e 	movl   $0x6e65696c,0x8(%eax)
 804a393:	c7 40 0c 74 20 75 6e 	movl   $0x6e752074,0xc(%eax)
 804a39a:	c7 40 10 61 62 6c 65 	movl   $0x656c6261,0x10(%eax)
 804a3a1:	c7 40 14 20 74 6f 20 	movl   $0x206f7420,0x14(%eax)
 804a3a8:	c7 40 18 63 72 65 61 	movl   $0x61657263,0x18(%eax)
 804a3af:	c7 40 1c 74 65 20 73 	movl   $0x73206574,0x1c(%eax)
 804a3b6:	c7 40 20 6f 63 6b 65 	movl   $0x656b636f,0x20(%eax)
 804a3bd:	66 c7 40 24 74 00    	movw   $0x74,0x24(%eax)
 804a3c3:	b8 ff ff ff ff       	mov    $0xffffffff,%eax
 804a3c8:	e9 4a 06 00 00       	jmp    804aa17 <submitr+0x727>
 804a3cd:	83 ec 0c             	sub    $0xc,%esp
 804a3d0:	ff b5 a4 5f ff ff    	push   -0xa05c(%ebp)
 804a3d6:	e8 75 ee ff ff       	call   8049250 <gethostbyname@plt>
 804a3db:	83 c4 10             	add    $0x10,%esp
 804a3de:	89 85 bc 5f ff ff    	mov    %eax,-0xa044(%ebp)
 804a3e4:	83 bd bc 5f ff ff 00 	cmpl   $0x0,-0xa044(%ebp)
 804a3eb:	75 37                	jne    804a424 <submitr+0x134>
 804a3ed:	83 ec 04             	sub    $0x4,%esp
 804a3f0:	ff b5 a4 5f ff ff    	push   -0xa05c(%ebp)
 804a3f6:	68 60 b5 04 08       	push   $0x804b560
 804a3fb:	ff b5 90 5f ff ff    	push   -0xa070(%ebp)
 804a401:	e8 0a ee ff ff       	call   8049210 <sprintf@plt>
 804a406:	83 c4 10             	add    $0x10,%esp
 804a409:	83 ec 0c             	sub    $0xc,%esp
 804a40c:	ff b5 b8 5f ff ff    	push   -0xa048(%ebp)
 804a412:	e8 59 ee ff ff       	call   8049270 <close@plt>
 804a417:	83 c4 10             	add    $0x10,%esp
 804a41a:	b8 ff ff ff ff       	mov    $0xffffffff,%eax
 804a41f:	e9 f3 05 00 00       	jmp    804aa17 <submitr+0x727>
 804a424:	8d 85 c8 5f ff ff    	lea    -0xa038(%ebp),%eax
 804a42a:	c7 00 00 00 00 00    	movl   $0x0,(%eax)
 804a430:	c7 40 04 00 00 00 00 	movl   $0x0,0x4(%eax)
 804a437:	c7 40 08 00 00 00 00 	movl   $0x0,0x8(%eax)
 804a43e:	c7 40 0c 00 00 00 00 	movl   $0x0,0xc(%eax)
 804a445:	66 c7 85 c8 5f ff ff 	movw   $0x2,-0xa038(%ebp)
 804a44c:	02 00 
 804a44e:	8b 85 bc 5f ff ff    	mov    -0xa044(%ebp),%eax
 804a454:	8b 40 0c             	mov    0xc(%eax),%eax
 804a457:	89 c2                	mov    %eax,%edx
 804a459:	8b 85 bc 5f ff ff    	mov    -0xa044(%ebp),%eax
 804a45f:	8b 40 10             	mov    0x10(%eax),%eax
 804a462:	8b 00                	mov    (%eax),%eax
 804a464:	83 ec 04             	sub    $0x4,%esp
 804a467:	52                   	push   %edx
 804a468:	50                   	push   %eax
 804a469:	8d 85 c8 5f ff ff    	lea    -0xa038(%ebp),%eax
 804a46f:	83 c0 04             	add    $0x4,%eax
 804a472:	50                   	push   %eax
 804a473:	e8 18 ec ff ff       	call   8049090 <memmove@plt>
 804a478:	83 c4 10             	add    $0x10,%esp
 804a47b:	8b 45 0c             	mov    0xc(%ebp),%eax
 804a47e:	0f b7 c0             	movzwl %ax,%eax
 804a481:	83 ec 0c             	sub    $0xc,%esp
 804a484:	50                   	push   %eax
 804a485:	e8 66 ec ff ff       	call   80490f0 <htons@plt>
 804a48a:	83 c4 10             	add    $0x10,%esp
 804a48d:	66 89 85 ca 5f ff ff 	mov    %ax,-0xa036(%ebp)
 804a494:	83 ec 04             	sub    $0x4,%esp
 804a497:	6a 10                	push   $0x10
 804a499:	8d 85 c8 5f ff ff    	lea    -0xa038(%ebp),%eax
 804a49f:	50                   	push   %eax
 804a4a0:	ff b5 b8 5f ff ff    	push   -0xa048(%ebp)
 804a4a6:	e8 b5 ed ff ff       	call   8049260 <connect@plt>
 804a4ab:	83 c4 10             	add    $0x10,%esp
 804a4ae:	85 c0                	test   %eax,%eax
 804a4b0:	79 37                	jns    804a4e9 <submitr+0x1f9>
 804a4b2:	83 ec 04             	sub    $0x4,%esp
 804a4b5:	ff b5 a4 5f ff ff    	push   -0xa05c(%ebp)
 804a4bb:	68 8c b5 04 08       	push   $0x804b58c
 804a4c0:	ff b5 90 5f ff ff    	push   -0xa070(%ebp)
 804a4c6:	e8 45 ed ff ff       	call   8049210 <sprintf@plt>
 804a4cb:	83 c4 10             	add    $0x10,%esp
 804a4ce:	83 ec 0c             	sub    $0xc,%esp
 804a4d1:	ff b5 b8 5f ff ff    	push   -0xa048(%ebp)
 804a4d7:	e8 94 ed ff ff       	call   8049270 <close@plt>
 804a4dc:	83 c4 10             	add    $0x10,%esp
 804a4df:	b8 ff ff ff ff       	mov    $0xffffffff,%eax
 804a4e4:	e9 2e 05 00 00       	jmp    804aa17 <submitr+0x727>
 804a4e9:	83 ec 0c             	sub    $0xc,%esp
 804a4ec:	ff b5 94 5f ff ff    	push   -0xa06c(%ebp)
 804a4f2:	e8 89 ec ff ff       	call   8049180 <strlen@plt>
 804a4f7:	83 c4 10             	add    $0x10,%esp
 804a4fa:	89 85 c0 5f ff ff    	mov    %eax,-0xa040(%ebp)
 804a500:	83 ec 0c             	sub    $0xc,%esp
 804a503:	ff b5 a0 5f ff ff    	push   -0xa060(%ebp)
 804a509:	e8 72 ec ff ff       	call   8049180 <strlen@plt>
 804a50e:	83 c4 10             	add    $0x10,%esp
 804a511:	89 c3                	mov    %eax,%ebx
 804a513:	83 ec 0c             	sub    $0xc,%esp
 804a516:	ff b5 9c 5f ff ff    	push   -0xa064(%ebp)
 804a51c:	e8 5f ec ff ff       	call   8049180 <strlen@plt>
 804a521:	83 c4 10             	add    $0x10,%esp
 804a524:	01 c3                	add    %eax,%ebx
 804a526:	83 ec 0c             	sub    $0xc,%esp
 804a529:	ff b5 98 5f ff ff    	push   -0xa068(%ebp)
 804a52f:	e8 4c ec ff ff       	call   8049180 <strlen@plt>
 804a534:	83 c4 10             	add    $0x10,%esp
 804a537:	8d 0c 03             	lea    (%ebx,%eax,1),%ecx
 804a53a:	8b 95 c0 5f ff ff    	mov    -0xa040(%ebp),%edx
 804a540:	89 d0                	mov    %edx,%eax
 804a542:	01 c0                	add    %eax,%eax
 804a544:	01 d0                	add    %edx,%eax
 804a546:	01 c8                	add    %ecx,%eax
 804a548:	83 e8 80             	sub    $0xffffff80,%eax
 804a54b:	89 85 c4 5f ff ff    	mov    %eax,-0xa03c(%ebp)
 804a551:	81 bd c4 5f ff ff 00 	cmpl   $0x2000,-0xa03c(%ebp)
 804a558:	20 00 00 
 804a55b:	0f 86 82 00 00 00    	jbe    804a5e3 <submitr+0x2f3>
 804a561:	8b 85 90 5f ff ff    	mov    -0xa070(%ebp),%eax
 804a567:	c7 00 45 72 72 6f    	movl   $0x6f727245,(%eax)
 804a56d:	c7 40 04 72 3a 20 52 	movl   $0x52203a72,0x4(%eax)
 804a574:	c7 40 08 65 73 75 6c 	movl   $0x6c757365,0x8(%eax)
 804a57b:	c7 40 0c 74 20 73 74 	movl   $0x74732074,0xc(%eax)
 804a582:	c7 40 10 72 69 6e 67 	movl   $0x676e6972,0x10(%eax)
 804a589:	c7 40 14 20 74 6f 6f 	movl   $0x6f6f7420,0x14(%eax)
 804a590:	c7 40 18 20 6c 61 72 	movl   $0x72616c20,0x18(%eax)
 804a597:	c7 40 1c 67 65 2e 20 	movl   $0x202e6567,0x1c(%eax)
 804a59e:	c7 40 20 49 6e 63 72 	movl   $0x72636e49,0x20(%eax)
 804a5a5:	c7 40 24 65 61 73 65 	movl   $0x65736165,0x24(%eax)
 804a5ac:	c7 40 28 20 53 55 42 	movl   $0x42555320,0x28(%eax)
 804a5b3:	c7 40 2c 4d 49 54 52 	movl   $0x5254494d,0x2c(%eax)
 804a5ba:	c7 40 30 5f 4d 41 58 	movl   $0x58414d5f,0x30(%eax)
 804a5c1:	c7 40 34 42 55 46 00 	movl   $0x465542,0x34(%eax)
 804a5c8:	83 ec 0c             	sub    $0xc,%esp
 804a5cb:	ff b5 b8 5f ff ff    	push   -0xa048(%ebp)
 804a5d1:	e8 9a ec ff ff       	call   8049270 <close@plt>
 804a5d6:	83 c4 10             	add    $0x10,%esp
 804a5d9:	b8 ff ff ff ff       	mov    $0xffffffff,%eax
 804a5de:	e9 34 04 00 00       	jmp    804aa17 <submitr+0x727>
 804a5e3:	8d 85 e4 9f ff ff    	lea    -0x601c(%ebp),%eax
 804a5e9:	89 c3                	mov    %eax,%ebx
 804a5eb:	b8 00 00 00 00       	mov    $0x0,%eax
 804a5f0:	ba 00 08 00 00       	mov    $0x800,%edx
 804a5f5:	89 df                	mov    %ebx,%edi
 804a5f7:	89 d1                	mov    %edx,%ecx
 804a5f9:	f3 ab                	rep stos %eax,%es:(%edi)
 804a5fb:	83 ec 08             	sub    $0x8,%esp
 804a5fe:	8d 85 e4 9f ff ff    	lea    -0x601c(%ebp),%eax
 804a604:	50                   	push   %eax
 804a605:	ff b5 94 5f ff ff    	push   -0xa06c(%ebp)
 804a60b:	e8 76 fb ff ff       	call   804a186 <urlencode>
 804a610:	83 c4 10             	add    $0x10,%esp
 804a613:	85 c0                	test   %eax,%eax
 804a615:	79 53                	jns    804a66a <submitr+0x37a>
 804a617:	8b 85 90 5f ff ff    	mov    -0xa070(%ebp),%eax
 804a61d:	89 c1                	mov    %eax,%ecx
 804a61f:	b8 b4 b5 04 08       	mov    $0x804b5b4,%eax
 804a624:	ba 43 00 00 00       	mov    $0x43,%edx
 804a629:	8b 18                	mov    (%eax),%ebx
 804a62b:	89 19                	mov    %ebx,(%ecx)
 804a62d:	8b 5c 10 fc          	mov    -0x4(%eax,%edx,1),%ebx
 804a631:	89 5c 11 fc          	mov    %ebx,-0x4(%ecx,%edx,1)
 804a635:	8d 59 04             	lea    0x4(%ecx),%ebx
 804a638:	83 e3 fc             	and    $0xfffffffc,%ebx
 804a63b:	29 d9                	sub    %ebx,%ecx
 804a63d:	29 c8                	sub    %ecx,%eax
 804a63f:	01 ca                	add    %ecx,%edx
 804a641:	83 e2 fc             	and    $0xfffffffc,%edx
 804a644:	c1 ea 02             	shr    $0x2,%edx
 804a647:	89 df                	mov    %ebx,%edi
 804a649:	89 c6                	mov    %eax,%esi
 804a64b:	89 d1                	mov    %edx,%ecx
 804a64d:	f3 a5                	rep movsl %ds:(%esi),%es:(%edi)
 804a64f:	83 ec 0c             	sub    $0xc,%esp
 804a652:	ff b5 b8 5f ff ff    	push   -0xa048(%ebp)
 804a658:	e8 13 ec ff ff       	call   8049270 <close@plt>
 804a65d:	83 c4 10             	add    $0x10,%esp
 804a660:	b8 ff ff ff ff       	mov    $0xffffffff,%eax
 804a665:	e9 ad 03 00 00       	jmp    804aa17 <submitr+0x727>
 804a66a:	83 ec 08             	sub    $0x8,%esp
 804a66d:	8d 85 e4 9f ff ff    	lea    -0x601c(%ebp),%eax
 804a673:	50                   	push   %eax
 804a674:	ff b5 98 5f ff ff    	push   -0xa068(%ebp)
 804a67a:	ff b5 9c 5f ff ff    	push   -0xa064(%ebp)
 804a680:	ff b5 a0 5f ff ff    	push   -0xa060(%ebp)
 804a686:	68 f8 b5 04 08       	push   $0x804b5f8
 804a68b:	8d 85 e4 7f ff ff    	lea    -0x801c(%ebp),%eax
 804a691:	50                   	push   %eax
 804a692:	e8 79 eb ff ff       	call   8049210 <sprintf@plt>
 804a697:	83 c4 20             	add    $0x20,%esp
 804a69a:	83 ec 0c             	sub    $0xc,%esp
 804a69d:	8d 85 e4 7f ff ff    	lea    -0x801c(%ebp),%eax
 804a6a3:	50                   	push   %eax
 804a6a4:	e8 d7 ea ff ff       	call   8049180 <strlen@plt>
 804a6a9:	83 c4 10             	add    $0x10,%esp
 804a6ac:	83 ec 04             	sub    $0x4,%esp
 804a6af:	50                   	push   %eax
 804a6b0:	8d 85 e4 7f ff ff    	lea    -0x801c(%ebp),%eax
 804a6b6:	50                   	push   %eax
 804a6b7:	ff b5 b8 5f ff ff    	push   -0xa048(%ebp)
 804a6bd:	e8 60 fa ff ff       	call   804a122 <rio_writen>
 804a6c2:	83 c4 10             	add    $0x10,%esp
 804a6c5:	85 c0                	test   %eax,%eax
 804a6c7:	79 6d                	jns    804a736 <submitr+0x446>
 804a6c9:	8b 85 90 5f ff ff    	mov    -0xa070(%ebp),%eax
 804a6cf:	c7 00 45 72 72 6f    	movl   $0x6f727245,(%eax)
 804a6d5:	c7 40 04 72 3a 20 43 	movl   $0x43203a72,0x4(%eax)
 804a6dc:	c7 40 08 6c 69 65 6e 	movl   $0x6e65696c,0x8(%eax)
 804a6e3:	c7 40 0c 74 20 75 6e 	movl   $0x6e752074,0xc(%eax)
 804a6ea:	c7 40 10 61 62 6c 65 	movl   $0x656c6261,0x10(%eax)
 804a6f1:	c7 40 14 20 74 6f 20 	movl   $0x206f7420,0x14(%eax)
 804a6f8:	c7 40 18 77 72 69 74 	movl   $0x74697277,0x18(%eax)
 804a6ff:	c7 40 1c 65 20 74 6f 	movl   $0x6f742065,0x1c(%eax)
 804a706:	c7 40 20 20 74 68 65 	movl   $0x65687420,0x20(%eax)
 804a70d:	c7 40 24 20 73 65 72 	movl   $0x72657320,0x24(%eax)
 804a714:	c7 40 28 76 65 72 00 	movl   $0x726576,0x28(%eax)
 804a71b:	83 ec 0c             	sub    $0xc,%esp
 804a71e:	ff b5 b8 5f ff ff    	push   -0xa048(%ebp)
 804a724:	e8 47 eb ff ff       	call   8049270 <close@plt>
 804a729:	83 c4 10             	add    $0x10,%esp
 804a72c:	b8 ff ff ff ff       	mov    $0xffffffff,%eax
 804a731:	e9 e1 02 00 00       	jmp    804aa17 <submitr+0x727>
 804a736:	83 ec 08             	sub    $0x8,%esp
 804a739:	ff b5 b8 5f ff ff    	push   -0xa048(%ebp)
 804a73f:	8d 85 d8 5f ff ff    	lea    -0xa028(%ebp),%eax
 804a745:	50                   	push   %eax
 804a746:	e8 43 f8 ff ff       	call   8049f8e <rio_readinitb>
 804a74b:	83 c4 10             	add    $0x10,%esp
 804a74e:	83 ec 04             	sub    $0x4,%esp
 804a751:	68 00 20 00 00       	push   $0x2000
 804a756:	8d 85 e4 7f ff ff    	lea    -0x801c(%ebp),%eax
 804a75c:	50                   	push   %eax
 804a75d:	8d 85 d8 5f ff ff    	lea    -0xa028(%ebp),%eax
 804a763:	50                   	push   %eax
 804a764:	e8 12 f9 ff ff       	call   804a07b <rio_readlineb>
 804a769:	83 c4 10             	add    $0x10,%esp
 804a76c:	85 c0                	test   %eax,%eax
 804a76e:	0f 8f 81 00 00 00    	jg     804a7f5 <submitr+0x505>
 804a774:	8b 85 90 5f ff ff    	mov    -0xa070(%ebp),%eax
 804a77a:	c7 00 45 72 72 6f    	movl   $0x6f727245,(%eax)
 804a780:	c7 40 04 72 3a 20 43 	movl   $0x43203a72,0x4(%eax)
 804a787:	c7 40 08 6c 69 65 6e 	movl   $0x6e65696c,0x8(%eax)
 804a78e:	c7 40 0c 74 20 75 6e 	movl   $0x6e752074,0xc(%eax)
 804a795:	c7 40 10 61 62 6c 65 	movl   $0x656c6261,0x10(%eax)
 804a79c:	c7 40 14 20 74 6f 20 	movl   $0x206f7420,0x14(%eax)
 804a7a3:	c7 40 18 72 65 61 64 	movl   $0x64616572,0x18(%eax)
 804a7aa:	c7 40 1c 20 66 69 72 	movl   $0x72696620,0x1c(%eax)
 804a7b1:	c7 40 20 73 74 20 68 	movl   $0x68207473,0x20(%eax)
 804a7b8:	c7 40 24 65 61 64 65 	movl   $0x65646165,0x24(%eax)
 804a7bf:	c7 40 28 72 20 66 72 	movl   $0x72662072,0x28(%eax)
 804a7c6:	c7 40 2c 6f 6d 20 73 	movl   $0x73206d6f,0x2c(%eax)
 804a7cd:	c7 40 30 65 72 76 65 	movl   $0x65767265,0x30(%eax)
 804a7d4:	66 c7 40 34 72 00    	movw   $0x72,0x34(%eax)
 804a7da:	83 ec 0c             	sub    $0xc,%esp
 804a7dd:	ff b5 b8 5f ff ff    	push   -0xa048(%ebp)
 804a7e3:	e8 88 ea ff ff       	call   8049270 <close@plt>
 804a7e8:	83 c4 10             	add    $0x10,%esp
 804a7eb:	b8 ff ff ff ff       	mov    $0xffffffff,%eax
 804a7f0:	e9 22 02 00 00       	jmp    804aa17 <submitr+0x727>
 804a7f5:	83 ec 0c             	sub    $0xc,%esp
 804a7f8:	8d 85 e4 df ff ff    	lea    -0x201c(%ebp),%eax
 804a7fe:	50                   	push   %eax
 804a7ff:	8d 85 b4 5f ff ff    	lea    -0xa04c(%ebp),%eax
 804a805:	50                   	push   %eax
 804a806:	8d 85 e4 bf ff ff    	lea    -0x401c(%ebp),%eax
 804a80c:	50                   	push   %eax
 804a80d:	68 42 b6 04 08       	push   $0x804b642
 804a812:	8d 85 e4 7f ff ff    	lea    -0x801c(%ebp),%eax
 804a818:	50                   	push   %eax
 804a819:	e8 a2 e9 ff ff       	call   80491c0 <__isoc99_sscanf@plt>
 804a81e:	83 c4 20             	add    $0x20,%esp
 804a821:	8b 85 b4 5f ff ff    	mov    -0xa04c(%ebp),%eax
 804a827:	3d c8 00 00 00       	cmp    $0xc8,%eax
 804a82c:	0f 84 d6 00 00 00    	je     804a908 <submitr+0x618>
 804a832:	8b 85 b4 5f ff ff    	mov    -0xa04c(%ebp),%eax
 804a838:	8d 95 e4 df ff ff    	lea    -0x201c(%ebp),%edx
 804a83e:	52                   	push   %edx
 804a83f:	50                   	push   %eax
 804a840:	68 54 b6 04 08       	push   $0x804b654
 804a845:	ff b5 90 5f ff ff    	push   -0xa070(%ebp)
 804a84b:	e8 c0 e9 ff ff       	call   8049210 <sprintf@plt>
 804a850:	83 c4 10             	add    $0x10,%esp
 804a853:	83 ec 0c             	sub    $0xc,%esp
 804a856:	ff b5 b8 5f ff ff    	push   -0xa048(%ebp)
 804a85c:	e8 0f ea ff ff       	call   8049270 <close@plt>
 804a861:	83 c4 10             	add    $0x10,%esp
 804a864:	b8 ff ff ff ff       	mov    $0xffffffff,%eax
 804a869:	e9 a9 01 00 00       	jmp    804aa17 <submitr+0x727>
 804a86e:	83 ec 04             	sub    $0x4,%esp
 804a871:	68 00 20 00 00       	push   $0x2000
 804a876:	8d 85 e4 7f ff ff    	lea    -0x801c(%ebp),%eax
 804a87c:	50                   	push   %eax
 804a87d:	8d 85 d8 5f ff ff    	lea    -0xa028(%ebp),%eax
 804a883:	50                   	push   %eax
 804a884:	e8 f2 f7 ff ff       	call   804a07b <rio_readlineb>
 804a889:	83 c4 10             	add    $0x10,%esp
 804a88c:	85 c0                	test   %eax,%eax
 804a88e:	7f 78                	jg     804a908 <submitr+0x618>
 804a890:	8b 85 90 5f ff ff    	mov    -0xa070(%ebp),%eax
 804a896:	c7 00 45 72 72 6f    	movl   $0x6f727245,(%eax)
 804a89c:	c7 40 04 72 3a 20 43 	movl   $0x43203a72,0x4(%eax)
 804a8a3:	c7 40 08 6c 69 65 6e 	movl   $0x6e65696c,0x8(%eax)
 804a8aa:	c7 40 0c 74 20 75 6e 	movl   $0x6e752074,0xc(%eax)
 804a8b1:	c7 40 10 61 62 6c 65 	movl   $0x656c6261,0x10(%eax)
 804a8b8:	c7 40 14 20 74 6f 20 	movl   $0x206f7420,0x14(%eax)
 804a8bf:	c7 40 18 72 65 61 64 	movl   $0x64616572,0x18(%eax)
 804a8c6:	c7 40 1c 20 68 65 61 	movl   $0x61656820,0x1c(%eax)
 804a8cd:	c7 40 20 64 65 72 73 	movl   $0x73726564,0x20(%eax)
 804a8d4:	c7 40 24 20 66 72 6f 	movl   $0x6f726620,0x24(%eax)
 804a8db:	c7 40 28 6d 20 73 65 	movl   $0x6573206d,0x28(%eax)
 804a8e2:	c7 40 2c 72 76 65 72 	movl   $0x72657672,0x2c(%eax)
 804a8e9:	c6 40 30 00          	movb   $0x0,0x30(%eax)
 804a8ed:	83 ec 0c             	sub    $0xc,%esp
 804a8f0:	ff b5 b8 5f ff ff    	push   -0xa048(%ebp)
 804a8f6:	e8 75 e9 ff ff       	call   8049270 <close@plt>
 804a8fb:	83 c4 10             	add    $0x10,%esp
 804a8fe:	b8 ff ff ff ff       	mov    $0xffffffff,%eax
 804a903:	e9 0f 01 00 00       	jmp    804aa17 <submitr+0x727>
 804a908:	83 ec 08             	sub    $0x8,%esp
 804a90b:	68 81 b6 04 08       	push   $0x804b681
 804a910:	8d 85 e4 7f ff ff    	lea    -0x801c(%ebp),%eax
 804a916:	50                   	push   %eax
 804a917:	e8 24 e7 ff ff       	call   8049040 <strcmp@plt>
 804a91c:	83 c4 10             	add    $0x10,%esp
 804a91f:	85 c0                	test   %eax,%eax
 804a921:	0f 85 47 ff ff ff    	jne    804a86e <submitr+0x57e>
 804a927:	83 ec 04             	sub    $0x4,%esp
 804a92a:	68 00 20 00 00       	push   $0x2000
 804a92f:	8d 85 e4 7f ff ff    	lea    -0x801c(%ebp),%eax
 804a935:	50                   	push   %eax
 804a936:	8d 85 d8 5f ff ff    	lea    -0xa028(%ebp),%eax
 804a93c:	50                   	push   %eax
 804a93d:	e8 39 f7 ff ff       	call   804a07b <rio_readlineb>
 804a942:	83 c4 10             	add    $0x10,%esp
 804a945:	85 c0                	test   %eax,%eax
 804a947:	7f 7f                	jg     804a9c8 <submitr+0x6d8>
 804a949:	8b 85 90 5f ff ff    	mov    -0xa070(%ebp),%eax
 804a94f:	c7 00 45 72 72 6f    	movl   $0x6f727245,(%eax)
 804a955:	c7 40 04 72 3a 20 43 	movl   $0x43203a72,0x4(%eax)
 804a95c:	c7 40 08 6c 69 65 6e 	movl   $0x6e65696c,0x8(%eax)
 804a963:	c7 40 0c 74 20 75 6e 	movl   $0x6e752074,0xc(%eax)
 804a96a:	c7 40 10 61 62 6c 65 	movl   $0x656c6261,0x10(%eax)
 804a971:	c7 40 14 20 74 6f 20 	movl   $0x206f7420,0x14(%eax)
 804a978:	c7 40 18 72 65 61 64 	movl   $0x64616572,0x18(%eax)
 804a97f:	c7 40 1c 20 73 74 61 	movl   $0x61747320,0x1c(%eax)
 804a986:	c7 40 20 74 75 73 20 	movl   $0x20737574,0x20(%eax)
 804a98d:	c7 40 24 6d 65 73 73 	movl   $0x7373656d,0x24(%eax)
 804a994:	c7 40 28 61 67 65 20 	movl   $0x20656761,0x28(%eax)
 804a99b:	c7 40 2c 66 72 6f 6d 	movl   $0x6d6f7266,0x2c(%eax)
 804a9a2:	c7 40 30 20 73 65 72 	movl   $0x72657320,0x30(%eax)
 804a9a9:	c7 40 34 76 65 72 00 	movl   $0x726576,0x34(%eax)
 804a9b0:	83 ec 0c             	sub    $0xc,%esp
 804a9b3:	ff b5 b8 5f ff ff    	push   -0xa048(%ebp)
 804a9b9:	e8 b2 e8 ff ff       	call   8049270 <close@plt>
 804a9be:	83 c4 10             	add    $0x10,%esp
 804a9c1:	b8 ff ff ff ff       	mov    $0xffffffff,%eax
 804a9c6:	eb 4f                	jmp    804aa17 <submitr+0x727>
 804a9c8:	83 ec 08             	sub    $0x8,%esp
 804a9cb:	8d 85 e4 7f ff ff    	lea    -0x801c(%ebp),%eax
 804a9d1:	50                   	push   %eax
 804a9d2:	ff b5 90 5f ff ff    	push   -0xa070(%ebp)
 804a9d8:	e8 33 e7 ff ff       	call   8049110 <strcpy@plt>
 804a9dd:	83 c4 10             	add    $0x10,%esp
 804a9e0:	83 ec 0c             	sub    $0xc,%esp
 804a9e3:	ff b5 b8 5f ff ff    	push   -0xa048(%ebp)
 804a9e9:	e8 82 e8 ff ff       	call   8049270 <close@plt>
 804a9ee:	83 c4 10             	add    $0x10,%esp
 804a9f1:	83 ec 08             	sub    $0x8,%esp
 804a9f4:	68 84 b6 04 08       	push   $0x804b684
 804a9f9:	ff b5 90 5f ff ff    	push   -0xa070(%ebp)
 804a9ff:	e8 3c e6 ff ff       	call   8049040 <strcmp@plt>
 804aa04:	83 c4 10             	add    $0x10,%esp
 804aa07:	85 c0                	test   %eax,%eax
 804aa09:	75 07                	jne    804aa12 <submitr+0x722>
 804aa0b:	b8 00 00 00 00       	mov    $0x0,%eax
 804aa10:	eb 05                	jmp    804aa17 <submitr+0x727>
 804aa12:	b8 ff ff ff ff       	mov    $0xffffffff,%eax
 804aa17:	8b 55 e4             	mov    -0x1c(%ebp),%edx
 804aa1a:	65 2b 15 14 00 00 00 	sub    %gs:0x14,%edx
 804aa21:	74 05                	je     804aa28 <submitr+0x738>
 804aa23:	e8 b8 e6 ff ff       	call   80490e0 <__stack_chk_fail@plt>
 804aa28:	8d 65 f4             	lea    -0xc(%ebp),%esp
 804aa2b:	5b                   	pop    %ebx
 804aa2c:	5e                   	pop    %esi
 804aa2d:	5f                   	pop    %edi
 804aa2e:	5d                   	pop    %ebp
 804aa2f:	c3                   	ret    

0804aa30 <init_timeout>:
 804aa30:	55                   	push   %ebp
 804aa31:	89 e5                	mov    %esp,%ebp
 804aa33:	83 ec 08             	sub    $0x8,%esp
 804aa36:	83 7d 08 00          	cmpl   $0x0,0x8(%ebp)
 804aa3a:	74 30                	je     804aa6c <init_timeout+0x3c>
 804aa3c:	83 7d 08 00          	cmpl   $0x0,0x8(%ebp)
 804aa40:	79 07                	jns    804aa49 <init_timeout+0x19>
 804aa42:	c7 45 08 02 00 00 00 	movl   $0x2,0x8(%ebp)
 804aa49:	83 ec 08             	sub    $0x8,%esp
 804aa4c:	68 6c 9f 04 08       	push   $0x8049f6c
 804aa51:	6a 0e                	push   $0xe
 804aa53:	e8 68 e6 ff ff       	call   80490c0 <signal@plt>
 804aa58:	83 c4 10             	add    $0x10,%esp
 804aa5b:	8b 45 08             	mov    0x8(%ebp),%eax
 804aa5e:	83 ec 0c             	sub    $0xc,%esp
 804aa61:	50                   	push   %eax
 804aa62:	e8 69 e6 ff ff       	call   80490d0 <alarm@plt>
 804aa67:	83 c4 10             	add    $0x10,%esp
 804aa6a:	eb 01                	jmp    804aa6d <init_timeout+0x3d>
 804aa6c:	90                   	nop
 804aa6d:	c9                   	leave  
 804aa6e:	c3                   	ret    

0804aa6f <init_driver>:
 804aa6f:	55                   	push   %ebp
 804aa70:	89 e5                	mov    %esp,%ebp
 804aa72:	83 ec 48             	sub    $0x48,%esp
 804aa75:	8b 45 08             	mov    0x8(%ebp),%eax
 804aa78:	89 45 c4             	mov    %eax,-0x3c(%ebp)
 804aa7b:	65 a1 14 00 00 00    	mov    %gs:0x14,%eax
 804aa81:	89 45 f4             	mov    %eax,-0xc(%ebp)
 804aa84:	31 c0                	xor    %eax,%eax
 804aa86:	c7 45 d4 87 b6 04 08 	movl   $0x804b687,-0x2c(%ebp)
 804aa8d:	c7 45 d8 03 d9 00 00 	movl   $0xd903,-0x28(%ebp)
 804aa94:	83 ec 08             	sub    $0x8,%esp
 804aa97:	6a 01                	push   $0x1
 804aa99:	6a 0d                	push   $0xd
 804aa9b:	e8 20 e6 ff ff       	call   80490c0 <signal@plt>
 804aaa0:	83 c4 10             	add    $0x10,%esp
 804aaa3:	83 ec 08             	sub    $0x8,%esp
 804aaa6:	6a 01                	push   $0x1
 804aaa8:	6a 1d                	push   $0x1d
 804aaaa:	e8 11 e6 ff ff       	call   80490c0 <signal@plt>
 804aaaf:	83 c4 10             	add    $0x10,%esp
 804aab2:	83 ec 08             	sub    $0x8,%esp
 804aab5:	6a 01                	push   $0x1
 804aab7:	6a 1d                	push   $0x1d
 804aab9:	e8 02 e6 ff ff       	call   80490c0 <signal@plt>
 804aabe:	83 c4 10             	add    $0x10,%esp
 804aac1:	83 ec 04             	sub    $0x4,%esp
 804aac4:	6a 00                	push   $0x0
 804aac6:	6a 01                	push   $0x1
 804aac8:	6a 02                	push   $0x2
 804aaca:	e8 51 e7 ff ff       	call   8049220 <socket@plt>
 804aacf:	83 c4 10             	add    $0x10,%esp
 804aad2:	89 45 dc             	mov    %eax,-0x24(%ebp)
 804aad5:	83 7d dc 00          	cmpl   $0x0,-0x24(%ebp)
 804aad9:	79 51                	jns    804ab2c <init_driver+0xbd>
 804aadb:	8b 45 c4             	mov    -0x3c(%ebp),%eax
 804aade:	c7 00 45 72 72 6f    	movl   $0x6f727245,(%eax)
 804aae4:	c7 40 04 72 3a 20 43 	movl   $0x43203a72,0x4(%eax)
 804aaeb:	c7 40 08 6c 69 65 6e 	movl   $0x6e65696c,0x8(%eax)
 804aaf2:	c7 40 0c 74 20 75 6e 	movl   $0x6e752074,0xc(%eax)
 804aaf9:	c7 40 10 61 62 6c 65 	movl   $0x656c6261,0x10(%eax)
 804ab00:	c7 40 14 20 74 6f 20 	movl   $0x206f7420,0x14(%eax)
 804ab07:	c7 40 18 63 72 65 61 	movl   $0x61657263,0x18(%eax)
 804ab0e:	c7 40 1c 74 65 20 73 	movl   $0x73206574,0x1c(%eax)
 804ab15:	c7 40 20 6f 63 6b 65 	movl   $0x656b636f,0x20(%eax)
 804ab1c:	66 c7 40 24 74 00    	movw   $0x74,0x24(%eax)
 804ab22:	b8 ff ff ff ff       	mov    $0xffffffff,%eax
 804ab27:	e9 05 01 00 00       	jmp    804ac31 <init_driver+0x1c2>
 804ab2c:	83 ec 0c             	sub    $0xc,%esp
 804ab2f:	ff 75 d4             	push   -0x2c(%ebp)
 804ab32:	e8 19 e7 ff ff       	call   8049250 <gethostbyname@plt>
 804ab37:	83 c4 10             	add    $0x10,%esp
 804ab3a:	89 45 e0             	mov    %eax,-0x20(%ebp)
 804ab3d:	83 7d e0 00          	cmpl   $0x0,-0x20(%ebp)
 804ab41:	75 2e                	jne    804ab71 <init_driver+0x102>
 804ab43:	83 ec 04             	sub    $0x4,%esp
 804ab46:	ff 75 d4             	push   -0x2c(%ebp)
 804ab49:	68 60 b5 04 08       	push   $0x804b560
 804ab4e:	ff 75 c4             	push   -0x3c(%ebp)
 804ab51:	e8 ba e6 ff ff       	call   8049210 <sprintf@plt>
 804ab56:	83 c4 10             	add    $0x10,%esp
 804ab59:	83 ec 0c             	sub    $0xc,%esp
 804ab5c:	ff 75 dc             	push   -0x24(%ebp)
 804ab5f:	e8 0c e7 ff ff       	call   8049270 <close@plt>
 804ab64:	83 c4 10             	add    $0x10,%esp
 804ab67:	b8 ff ff ff ff       	mov    $0xffffffff,%eax
 804ab6c:	e9 c0 00 00 00       	jmp    804ac31 <init_driver+0x1c2>
 804ab71:	8d 45 e4             	lea    -0x1c(%ebp),%eax
 804ab74:	c7 00 00 00 00 00    	movl   $0x0,(%eax)
 804ab7a:	c7 40 04 00 00 00 00 	movl   $0x0,0x4(%eax)
 804ab81:	c7 40 08 00 00 00 00 	movl   $0x0,0x8(%eax)
 804ab88:	c7 40 0c 00 00 00 00 	movl   $0x0,0xc(%eax)
 804ab8f:	66 c7 45 e4 02 00    	movw   $0x2,-0x1c(%ebp)
 804ab95:	8b 45 e0             	mov    -0x20(%ebp),%eax
 804ab98:	8b 40 0c             	mov    0xc(%eax),%eax
 804ab9b:	89 c2                	mov    %eax,%edx
 804ab9d:	8b 45 e0             	mov    -0x20(%ebp),%eax
 804aba0:	8b 40 10             	mov    0x10(%eax),%eax
 804aba3:	8b 00                	mov    (%eax),%eax
 804aba5:	83 ec 04             	sub    $0x4,%esp
 804aba8:	52                   	push   %edx
 804aba9:	50                   	push   %eax
 804abaa:	8d 45 e4             	lea    -0x1c(%ebp),%eax
 804abad:	83 c0 04             	add    $0x4,%eax
 804abb0:	50                   	push   %eax
 804abb1:	e8 da e4 ff ff       	call   8049090 <memmove@plt>
 804abb6:	83 c4 10             	add    $0x10,%esp
 804abb9:	8b 45 d8             	mov    -0x28(%ebp),%eax
 804abbc:	0f b7 c0             	movzwl %ax,%eax
 804abbf:	83 ec 0c             	sub    $0xc,%esp
 804abc2:	50                   	push   %eax
 804abc3:	e8 28 e5 ff ff       	call   80490f0 <htons@plt>
 804abc8:	83 c4 10             	add    $0x10,%esp
 804abcb:	66 89 45 e6          	mov    %ax,-0x1a(%ebp)
 804abcf:	83 ec 04             	sub    $0x4,%esp
 804abd2:	6a 10                	push   $0x10
 804abd4:	8d 45 e4             	lea    -0x1c(%ebp),%eax
 804abd7:	50                   	push   %eax
 804abd8:	ff 75 dc             	push   -0x24(%ebp)
 804abdb:	e8 80 e6 ff ff       	call   8049260 <connect@plt>
 804abe0:	83 c4 10             	add    $0x10,%esp
 804abe3:	85 c0                	test   %eax,%eax
 804abe5:	79 2b                	jns    804ac12 <init_driver+0x1a3>
 804abe7:	ff 75 d8             	push   -0x28(%ebp)
 804abea:	ff 75 d4             	push   -0x2c(%ebp)
 804abed:	68 9c b6 04 08       	push   $0x804b69c
 804abf2:	ff 75 c4             	push   -0x3c(%ebp)
 804abf5:	e8 16 e6 ff ff       	call   8049210 <sprintf@plt>
 804abfa:	83 c4 10             	add    $0x10,%esp
 804abfd:	83 ec 0c             	sub    $0xc,%esp
 804ac00:	ff 75 dc             	push   -0x24(%ebp)
 804ac03:	e8 68 e6 ff ff       	call   8049270 <close@plt>
 804ac08:	83 c4 10             	add    $0x10,%esp
 804ac0b:	b8 ff ff ff ff       	mov    $0xffffffff,%eax
 804ac10:	eb 1f                	jmp    804ac31 <init_driver+0x1c2>
 804ac12:	83 ec 0c             	sub    $0xc,%esp
 804ac15:	ff 75 dc             	push   -0x24(%ebp)
 804ac18:	e8 53 e6 ff ff       	call   8049270 <close@plt>
 804ac1d:	83 c4 10             	add    $0x10,%esp
 804ac20:	8b 45 c4             	mov    -0x3c(%ebp),%eax
 804ac23:	66 c7 00 4f 4b       	movw   $0x4b4f,(%eax)
 804ac28:	c6 40 02 00          	movb   $0x0,0x2(%eax)
 804ac2c:	b8 00 00 00 00       	mov    $0x0,%eax
 804ac31:	8b 55 f4             	mov    -0xc(%ebp),%edx
 804ac34:	65 2b 15 14 00 00 00 	sub    %gs:0x14,%edx
 804ac3b:	74 05                	je     804ac42 <init_driver+0x1d3>
 804ac3d:	e8 9e e4 ff ff       	call   80490e0 <__stack_chk_fail@plt>
 804ac42:	c9                   	leave  
 804ac43:	c3                   	ret    

0804ac44 <driver_post>:
 804ac44:	55                   	push   %ebp
 804ac45:	89 e5                	mov    %esp,%ebp
 804ac47:	83 ec 18             	sub    $0x18,%esp
 804ac4a:	83 7d 10 00          	cmpl   $0x0,0x10(%ebp)
 804ac4e:	74 26                	je     804ac76 <driver_post+0x32>
 804ac50:	83 ec 08             	sub    $0x8,%esp
 804ac53:	ff 75 0c             	push   0xc(%ebp)
 804ac56:	68 c5 b6 04 08       	push   $0x804b6c5
 804ac5b:	e8 20 e4 ff ff       	call   8049080 <printf@plt>
 804ac60:	83 c4 10             	add    $0x10,%esp
 804ac63:	8b 45 14             	mov    0x14(%ebp),%eax
 804ac66:	66 c7 00 4f 4b       	movw   $0x4b4f,(%eax)
 804ac6b:	c6 40 02 00          	movb   $0x0,0x2(%eax)
 804ac6f:	b8 00 00 00 00       	mov    $0x0,%eax
 804ac74:	eb 54                	jmp    804acca <driver_post+0x86>
 804ac76:	83 7d 08 00          	cmpl   $0x0,0x8(%ebp)
 804ac7a:	74 3d                	je     804acb9 <driver_post+0x75>
 804ac7c:	8b 45 08             	mov    0x8(%ebp),%eax
 804ac7f:	0f b6 00             	movzbl (%eax),%eax
 804ac82:	0f b6 c0             	movzbl %al,%eax
 804ac85:	85 c0                	test   %eax,%eax
 804ac87:	74 30                	je     804acb9 <driver_post+0x75>
 804ac89:	83 ec 04             	sub    $0x4,%esp
 804ac8c:	ff 75 14             	push   0x14(%ebp)
 804ac8f:	ff 75 0c             	push   0xc(%ebp)
 804ac92:	68 dc b6 04 08       	push   $0x804b6dc
 804ac97:	ff 75 08             	push   0x8(%ebp)
 804ac9a:	68 e3 b6 04 08       	push   $0x804b6e3
 804ac9f:	68 03 d9 00 00       	push   $0xd903
 804aca4:	68 87 b6 04 08       	push   $0x804b687
 804aca9:	e8 42 f6 ff ff       	call   804a2f0 <submitr>
 804acae:	83 c4 20             	add    $0x20,%esp
 804acb1:	89 45 f4             	mov    %eax,-0xc(%ebp)
 804acb4:	8b 45 f4             	mov    -0xc(%ebp),%eax
 804acb7:	eb 11                	jmp    804acca <driver_post+0x86>
 804acb9:	8b 45 14             	mov    0x14(%ebp),%eax
 804acbc:	66 c7 00 4f 4b       	movw   $0x4b4f,(%eax)
 804acc1:	c6 40 02 00          	movb   $0x0,0x2(%eax)
 804acc5:	b8 00 00 00 00       	mov    $0x0,%eax
 804acca:	c9                   	leave  
 804accb:	c3                   	ret    

0804accc <hash>:
 804accc:	55                   	push   %ebp
 804accd:	89 e5                	mov    %esp,%ebp
 804accf:	83 ec 10             	sub    $0x10,%esp
 804acd2:	c7 45 fc 00 00 00 00 	movl   $0x0,-0x4(%ebp)
 804acd9:	eb 1a                	jmp    804acf5 <hash+0x29>
 804acdb:	8b 45 fc             	mov    -0x4(%ebp),%eax
 804acde:	6b c8 67             	imul   $0x67,%eax,%ecx
 804ace1:	8b 45 08             	mov    0x8(%ebp),%eax
 804ace4:	8d 50 01             	lea    0x1(%eax),%edx
 804ace7:	89 55 08             	mov    %edx,0x8(%ebp)
 804acea:	0f b6 00             	movzbl (%eax),%eax
 804aced:	0f be c0             	movsbl %al,%eax
 804acf0:	01 c8                	add    %ecx,%eax
 804acf2:	89 45 fc             	mov    %eax,-0x4(%ebp)
 804acf5:	8b 45 08             	mov    0x8(%ebp),%eax
 804acf8:	0f b6 00             	movzbl (%eax),%eax
 804acfb:	84 c0                	test   %al,%al
 804acfd:	75 dc                	jne    804acdb <hash+0xf>
 804acff:	8b 45 fc             	mov    -0x4(%ebp),%eax
 804ad02:	c9                   	leave  
 804ad03:	c3                   	ret    

0804ad04 <check>:
 804ad04:	55                   	push   %ebp
 804ad05:	89 e5                	mov    %esp,%ebp
 804ad07:	83 ec 10             	sub    $0x10,%esp
 804ad0a:	8b 45 08             	mov    0x8(%ebp),%eax
 804ad0d:	c1 e8 1c             	shr    $0x1c,%eax
 804ad10:	85 c0                	test   %eax,%eax
 804ad12:	75 07                	jne    804ad1b <check+0x17>
 804ad14:	b8 00 00 00 00       	mov    $0x0,%eax
 804ad19:	eb 33                	jmp    804ad4e <check+0x4a>
 804ad1b:	c7 45 fc 00 00 00 00 	movl   $0x0,-0x4(%ebp)
 804ad22:	eb 1f                	jmp    804ad43 <check+0x3f>
 804ad24:	8b 45 fc             	mov    -0x4(%ebp),%eax
 804ad27:	8b 55 08             	mov    0x8(%ebp),%edx
 804ad2a:	89 c1                	mov    %eax,%ecx
 804ad2c:	d3 ea                	shr    %cl,%edx
 804ad2e:	89 d0                	mov    %edx,%eax
 804ad30:	0f b6 c0             	movzbl %al,%eax
 804ad33:	83 f8 0a             	cmp    $0xa,%eax
 804ad36:	75 07                	jne    804ad3f <check+0x3b>
 804ad38:	b8 00 00 00 00       	mov    $0x0,%eax
 804ad3d:	eb 0f                	jmp    804ad4e <check+0x4a>
 804ad3f:	83 45 fc 08          	addl   $0x8,-0x4(%ebp)
 804ad43:	83 7d fc 1f          	cmpl   $0x1f,-0x4(%ebp)
 804ad47:	7e db                	jle    804ad24 <check+0x20>
 804ad49:	b8 01 00 00 00       	mov    $0x1,%eax
 804ad4e:	c9                   	leave  
 804ad4f:	c3                   	ret    

0804ad50 <gencookie>:
 804ad50:	55                   	push   %ebp
 804ad51:	89 e5                	mov    %esp,%ebp
 804ad53:	83 ec 18             	sub    $0x18,%esp
 804ad56:	ff 75 08             	push   0x8(%ebp)
 804ad59:	e8 6e ff ff ff       	call   804accc <hash>
 804ad5e:	83 c4 04             	add    $0x4,%esp
 804ad61:	83 ec 0c             	sub    $0xc,%esp
 804ad64:	50                   	push   %eax
 804ad65:	e8 f6 e3 ff ff       	call   8049160 <srand@plt>
 804ad6a:	83 c4 10             	add    $0x10,%esp
 804ad6d:	e8 7e e4 ff ff       	call   80491f0 <rand@plt>
 804ad72:	89 45 f4             	mov    %eax,-0xc(%ebp)
 804ad75:	83 ec 0c             	sub    $0xc,%esp
 804ad78:	ff 75 f4             	push   -0xc(%ebp)
 804ad7b:	e8 84 ff ff ff       	call   804ad04 <check>
 804ad80:	83 c4 10             	add    $0x10,%esp
 804ad83:	85 c0                	test   %eax,%eax
 804ad85:	74 e6                	je     804ad6d <gencookie+0x1d>
 804ad87:	8b 45 f4             	mov    -0xc(%ebp),%eax
 804ad8a:	c9                   	leave  
 804ad8b:	c3                   	ret    

Disassembly of section .fini:

0804ad8c <_fini>:
 804ad8c:	f3 0f 1e fb          	endbr32 
 804ad90:	53                   	push   %ebx
 804ad91:	83 ec 08             	sub    $0x8,%esp
 804ad94:	e8 47 e5 ff ff       	call   80492e0 <__x86.get_pc_thunk.bx>
 804ad99:	81 c3 67 22 00 00    	add    $0x2267,%ebx
 804ad9f:	83 c4 08             	add    $0x8,%esp
 804ada2:	5b                   	pop    %ebx
 804ada3:	c3                   	ret    
